;--------------------------------------------------------
; File Created by SDCC : free open source ANSI-C Compiler
; Version 4.0.4 #11952 (MINGW64)
;--------------------------------------------------------
	.module bank11
	.optsdcc -mgbz80
	
;--------------------------------------------------------
; Public variables in this module
;--------------------------------------------------------
	.globl _Play_Confirm
	.globl _Play_Use
	.globl _Play_Buzz
	.globl _song_Data
	.globl _song7
	.globl _song6
	.globl _song5
	.globl _song4
	.globl _song3
	.globl _song2
	.globl _song1
	.globl _song0
;--------------------------------------------------------
; special function registers
;--------------------------------------------------------
;--------------------------------------------------------
; ram data
;--------------------------------------------------------
	.area _DATA
_song_Data::
	.ds 14
;--------------------------------------------------------
; absolute external ram data
;--------------------------------------------------------
	.area _DABS (ABS)
;--------------------------------------------------------
; global & static initialisations
;--------------------------------------------------------
	.area _HOME
	.area _GSINIT
	.area _GSFINAL
	.area _GSINIT
;Music/output.c:537: const unsigned char * song_Data[] = {
	ld	hl, #_song_Data
	ld	a, #<(_song0)
	ld	(hl+), a
	ld	(hl), #>(_song0)
	ld	hl, #(_song_Data + 0x0002)
	ld	a, #<(_song0)
	ld	(hl+), a
	ld	(hl), #>(_song0)
	ld	hl, #(_song_Data + 0x0004)
	ld	a, #<(_song1)
	ld	(hl+), a
	ld	(hl), #>(_song1)
	ld	hl, #(_song_Data + 0x0006)
	ld	a, #<(_song1)
	ld	(hl+), a
	ld	(hl), #>(_song1)
	ld	hl, #(_song_Data + 0x0008)
	ld	a, #<(_song7)
	ld	(hl+), a
	ld	(hl), #>(_song7)
	ld	hl, #(_song_Data + 0x000a)
	ld	a, #<(_song7)
	ld	(hl+), a
	ld	(hl), #>(_song7)
	ld	hl, #(_song_Data + 0x000c)
	xor	a, a
	ld	(hl+), a
	ld	(hl), a
;--------------------------------------------------------
; Home
;--------------------------------------------------------
	.area _HOME
	.area _HOME
;--------------------------------------------------------
; code
;--------------------------------------------------------
	.area _CODE_11
;bank11.c:4: void Play_Buzz()
;	---------------------------------
; Function Play_Buzz
; ---------------------------------
_Play_Buzz::
;bank11.c:6: NR10_REG = 0x2A;
	ld	a, #0x2a
	ldh	(_NR10_REG+0),a
;bank11.c:7: NR11_REG = 0x82;
	ld	a, #0x82
	ldh	(_NR11_REG+0),a
;bank11.c:8: NR12_REG = 0xF1;
	ld	a, #0xf1
	ldh	(_NR12_REG+0),a
;bank11.c:9: NR13_REG = 0x5E;
	ld	a, #0x5e
	ldh	(_NR13_REG+0),a
;bank11.c:10: NR14_REG = 0x86;
	ld	a, #0x86
	ldh	(_NR14_REG+0),a
;bank11.c:11: }
	ret
_song0:
	.db #0x00	; 0
	.db #0x98	; 152
	.db #0x1f	; 31
	.db #0x91	; 145
	.db #0x2a	; 42
	.db #0x00	; 0
	.db #0x00	; 0
	.db #0x00	; 0
	.db #0x00	; 0
	.db #0x00	; 0
	.db #0x00	; 0
	.db #0x28	; 40
	.db #0x00	; 0
	.db #0x00	; 0
	.db #0x00	; 0
	.db #0x28	; 40
	.db #0x00	; 0
	.db #0x00	; 0
	.db #0x00	; 0
	.db #0x93	; 147
	.db #0x1f	; 31
	.db #0x21	; 33
	.db #0x00	; 0
	.db #0x00	; 0
	.db #0x00	; 0
	.db #0x00	; 0
	.db #0x00	; 0
	.db #0x00	; 0
	.db #0x28	; 40
	.db #0x00	; 0
	.db #0x00	; 0
	.db #0x00	; 0
	.db #0x28	; 40
	.db #0x00	; 0
	.db #0x00	; 0
	.db #0x00	; 0
	.db #0x9a	; 154
	.db #0x1f	; 31
	.db #0x22	; 34
	.db #0x00	; 0
	.db #0x00	; 0
	.db #0x00	; 0
	.db #0x00	; 0
	.db #0x00	; 0
	.db #0x00	; 0
	.db #0x28	; 40
	.db #0x00	; 0
	.db #0x00	; 0
	.db #0x00	; 0
	.db #0x28	; 40
	.db #0x00	; 0
	.db #0x00	; 0
	.db #0x00	; 0
	.db #0x98	; 152
	.db #0x1f	; 31
	.db #0x21	; 33
	.db #0x00	; 0
	.db #0x00	; 0
	.db #0x00	; 0
	.db #0x00	; 0
	.db #0x00	; 0
	.db #0x00	; 0
	.db #0x28	; 40
	.db #0x00	; 0
	.db #0x00	; 0
	.db #0x00	; 0
	.db #0x28	; 40
	.db #0x00	; 0
	.db #0x00	; 0
	.db #0x00	; 0
	.db #0x00	; 0
	.db #0x22	; 34
	.db #0x00	; 0
	.db #0x00	; 0
	.db #0x00	; 0
	.db #0x00	; 0
	.db #0x00	; 0
	.db #0x00	; 0
	.db #0x00	; 0
	.db #0x00	; 0
	.db #0x00	; 0
	.db #0x00	; 0
	.db #0x00	; 0
	.db #0x00	; 0
	.db #0x00	; 0
	.db #0x00	; 0
	.db #0x00	; 0
	.db #0x21	; 33
	.db #0x00	; 0
	.db #0x00	; 0
	.db #0x00	; 0
	.db #0x00	; 0
	.db #0x00	; 0
	.db #0x00	; 0
	.db #0x00	; 0
	.db #0x00	; 0
	.db #0x00	; 0
	.db #0x00	; 0
	.db #0x00	; 0
	.db #0x00	; 0
	.db #0x00	; 0
	.db #0x00	; 0
	.db #0x00	; 0
	.db #0x22	; 34
	.db #0x00	; 0
	.db #0x00	; 0
	.db #0x00	; 0
	.db #0x00	; 0
	.db #0x00	; 0
	.db #0x00	; 0
	.db #0x00	; 0
	.db #0x00	; 0
	.db #0x00	; 0
	.db #0x00	; 0
	.db #0x00	; 0
	.db #0x00	; 0
	.db #0x00	; 0
	.db #0x00	; 0
	.db #0x00	; 0
	.db #0x21	; 33
	.db #0x00	; 0
	.db #0x00	; 0
	.db #0x00	; 0
	.db #0x00	; 0
	.db #0x00	; 0
	.db #0x00	; 0
	.db #0x00	; 0
	.db #0x00	; 0
	.db #0x00	; 0
	.db #0x00	; 0
	.db #0x00	; 0
	.db #0x00	; 0
	.db #0x00	; 0
	.db #0x00	; 0
	.db #0x98	; 152
	.db #0x1f	; 31
	.db #0x90	; 144
	.db #0x2a	; 42
	.db #0x00	; 0
	.db #0x00	; 0
	.db #0x00	; 0
	.db #0x00	; 0
	.db #0x00	; 0
	.db #0x00	; 0
	.db #0x28	; 40
	.db #0x00	; 0
	.db #0x00	; 0
	.db #0x00	; 0
	.db #0x28	; 40
	.db #0x00	; 0
	.db #0x00	; 0
	.db #0x00	; 0
	.db #0x93	; 147
	.db #0x1f	; 31
	.db #0x21	; 33
	.db #0x00	; 0
	.db #0x00	; 0
	.db #0x00	; 0
	.db #0x00	; 0
	.db #0x00	; 0
	.db #0x00	; 0
	.db #0x28	; 40
	.db #0x00	; 0
	.db #0x00	; 0
	.db #0x00	; 0
	.db #0x28	; 40
	.db #0x00	; 0
	.db #0x00	; 0
	.db #0x00	; 0
	.db #0x9a	; 154
	.db #0x1f	; 31
	.db #0x22	; 34
	.db #0x00	; 0
	.db #0x00	; 0
	.db #0x00	; 0
	.db #0x00	; 0
	.db #0x00	; 0
	.db #0x00	; 0
	.db #0x28	; 40
	.db #0x00	; 0
	.db #0x00	; 0
	.db #0x00	; 0
	.db #0x28	; 40
	.db #0x00	; 0
	.db #0x00	; 0
	.db #0x00	; 0
	.db #0x98	; 152
	.db #0x1f	; 31
	.db #0x21	; 33
	.db #0x00	; 0
	.db #0x00	; 0
	.db #0x00	; 0
	.db #0x00	; 0
	.db #0x00	; 0
	.db #0x00	; 0
	.db #0x28	; 40
	.db #0x00	; 0
	.db #0x00	; 0
	.db #0x00	; 0
	.db #0x28	; 40
	.db #0x00	; 0
	.db #0x00	; 0
	.db #0x00	; 0
	.db #0x00	; 0
	.db #0x22	; 34
	.db #0x00	; 0
	.db #0x00	; 0
	.db #0x00	; 0
	.db #0x00	; 0
	.db #0x00	; 0
	.db #0x00	; 0
	.db #0x00	; 0
	.db #0x00	; 0
	.db #0x00	; 0
	.db #0x00	; 0
	.db #0x00	; 0
	.db #0x00	; 0
	.db #0x00	; 0
	.db #0x00	; 0
	.db #0x00	; 0
	.db #0x21	; 33
	.db #0x00	; 0
	.db #0x00	; 0
	.db #0x00	; 0
	.db #0x00	; 0
	.db #0x00	; 0
	.db #0x00	; 0
	.db #0x00	; 0
	.db #0x00	; 0
	.db #0x00	; 0
	.db #0x00	; 0
	.db #0x00	; 0
	.db #0x00	; 0
	.db #0x00	; 0
	.db #0x00	; 0
	.db #0x00	; 0
	.db #0x22	; 34
	.db #0x00	; 0
	.db #0x00	; 0
	.db #0x00	; 0
	.db #0x00	; 0
	.db #0x00	; 0
	.db #0x00	; 0
	.db #0x00	; 0
	.db #0x00	; 0
	.db #0x00	; 0
	.db #0x00	; 0
	.db #0x00	; 0
	.db #0x00	; 0
	.db #0x00	; 0
	.db #0x00	; 0
	.db #0x00	; 0
	.db #0x21	; 33
	.db #0x00	; 0
	.db #0x00	; 0
	.db #0x00	; 0
	.db #0x00	; 0
	.db #0x00	; 0
	.db #0x00	; 0
	.db #0x00	; 0
	.db #0x00	; 0
	.db #0x00	; 0
	.db #0x00	; 0
	.db #0x00	; 0
	.db #0x00	; 0
	.db #0x00	; 0
_song1:
	.db #0x00	; 0
	.db #0x98	; 152
	.db #0x1f	; 31
	.db #0x91	; 145
	.db #0x2a	; 42
	.db #0x88	; 136
	.db #0x0c	; 12
	.db #0x00	; 0
	.db #0x00	; 0
	.db #0x00	; 0
	.db #0x00	; 0
	.db #0x00	; 0
	.db #0x28	; 40
	.db #0x00	; 0
	.db #0x20	; 32
	.db #0x00	; 0
	.db #0x28	; 40
	.db #0x00	; 0
	.db #0x00	; 0
	.db #0x00	; 0
	.db #0x93	; 147
	.db #0x1f	; 31
	.db #0x21	; 33
	.db #0x00	; 0
	.db #0x00	; 0
	.db #0x00	; 0
	.db #0x00	; 0
	.db #0x00	; 0
	.db #0x00	; 0
	.db #0x28	; 40
	.db #0x00	; 0
	.db #0x00	; 0
	.db #0x00	; 0
	.db #0x28	; 40
	.db #0x00	; 0
	.db #0x00	; 0
	.db #0x00	; 0
	.db #0x9a	; 154
	.db #0x1f	; 31
	.db #0x22	; 34
	.db #0x88	; 136
	.db #0x0c	; 12
	.db #0x00	; 0
	.db #0x00	; 0
	.db #0x00	; 0
	.db #0x00	; 0
	.db #0x00	; 0
	.db #0x28	; 40
	.db #0x00	; 0
	.db #0x20	; 32
	.db #0x00	; 0
	.db #0x28	; 40
	.db #0x00	; 0
	.db #0x00	; 0
	.db #0x00	; 0
	.db #0x98	; 152
	.db #0x1f	; 31
	.db #0x21	; 33
	.db #0x00	; 0
	.db #0x00	; 0
	.db #0x00	; 0
	.db #0x00	; 0
	.db #0x00	; 0
	.db #0x00	; 0
	.db #0x28	; 40
	.db #0x00	; 0
	.db #0x00	; 0
	.db #0x00	; 0
	.db #0x28	; 40
	.db #0x00	; 0
	.db #0x00	; 0
	.db #0x00	; 0
	.db #0x00	; 0
	.db #0x22	; 34
	.db #0x88	; 136
	.db #0x0c	; 12
	.db #0x00	; 0
	.db #0x00	; 0
	.db #0x00	; 0
	.db #0x00	; 0
	.db #0x00	; 0
	.db #0x00	; 0
	.db #0x00	; 0
	.db #0x20	; 32
	.db #0x00	; 0
	.db #0x00	; 0
	.db #0x00	; 0
	.db #0x00	; 0
	.db #0x00	; 0
	.db #0x00	; 0
	.db #0x21	; 33
	.db #0x00	; 0
	.db #0x00	; 0
	.db #0x00	; 0
	.db #0x00	; 0
	.db #0x00	; 0
	.db #0x00	; 0
	.db #0x00	; 0
	.db #0x00	; 0
	.db #0x00	; 0
	.db #0x00	; 0
	.db #0x00	; 0
	.db #0x00	; 0
	.db #0x00	; 0
	.db #0x00	; 0
	.db #0x00	; 0
	.db #0x22	; 34
	.db #0x88	; 136
	.db #0x0c	; 12
	.db #0x00	; 0
	.db #0x00	; 0
	.db #0x00	; 0
	.db #0x00	; 0
	.db #0x00	; 0
	.db #0x00	; 0
	.db #0x00	; 0
	.db #0x20	; 32
	.db #0x00	; 0
	.db #0x00	; 0
	.db #0x00	; 0
	.db #0x00	; 0
	.db #0x00	; 0
	.db #0x00	; 0
	.db #0x21	; 33
	.db #0x88	; 136
	.db #0x0c	; 12
	.db #0x00	; 0
	.db #0x00	; 0
	.db #0x00	; 0
	.db #0x00	; 0
	.db #0x00	; 0
	.db #0x00	; 0
	.db #0x00	; 0
	.db #0x20	; 32
	.db #0x00	; 0
	.db #0x00	; 0
	.db #0x00	; 0
	.db #0x00	; 0
	.db #0x00	; 0
	.db #0x98	; 152
	.db #0x1f	; 31
	.db #0x90	; 144
	.db #0x2a	; 42
	.db #0x88	; 136
	.db #0x0c	; 12
	.db #0x00	; 0
	.db #0x00	; 0
	.db #0x00	; 0
	.db #0x00	; 0
	.db #0x00	; 0
	.db #0x28	; 40
	.db #0x00	; 0
	.db #0x20	; 32
	.db #0x00	; 0
	.db #0x28	; 40
	.db #0x00	; 0
	.db #0x00	; 0
	.db #0x00	; 0
	.db #0x93	; 147
	.db #0x1f	; 31
	.db #0x21	; 33
	.db #0x00	; 0
	.db #0x00	; 0
	.db #0x00	; 0
	.db #0x00	; 0
	.db #0x00	; 0
	.db #0x00	; 0
	.db #0x28	; 40
	.db #0x00	; 0
	.db #0x00	; 0
	.db #0x00	; 0
	.db #0x28	; 40
	.db #0x00	; 0
	.db #0x00	; 0
	.db #0x00	; 0
	.db #0x9a	; 154
	.db #0x1f	; 31
	.db #0x22	; 34
	.db #0x88	; 136
	.db #0x0c	; 12
	.db #0x00	; 0
	.db #0x00	; 0
	.db #0x00	; 0
	.db #0x00	; 0
	.db #0x00	; 0
	.db #0x28	; 40
	.db #0x00	; 0
	.db #0x20	; 32
	.db #0x00	; 0
	.db #0x28	; 40
	.db #0x00	; 0
	.db #0x00	; 0
	.db #0x00	; 0
	.db #0x98	; 152
	.db #0x1f	; 31
	.db #0x21	; 33
	.db #0x00	; 0
	.db #0x00	; 0
	.db #0x00	; 0
	.db #0x00	; 0
	.db #0x00	; 0
	.db #0x00	; 0
	.db #0x28	; 40
	.db #0x00	; 0
	.db #0x00	; 0
	.db #0x00	; 0
	.db #0x28	; 40
	.db #0x00	; 0
	.db #0x00	; 0
	.db #0x00	; 0
	.db #0x00	; 0
	.db #0x22	; 34
	.db #0x88	; 136
	.db #0x0c	; 12
	.db #0x00	; 0
	.db #0x00	; 0
	.db #0x00	; 0
	.db #0x00	; 0
	.db #0x00	; 0
	.db #0x00	; 0
	.db #0x00	; 0
	.db #0x20	; 32
	.db #0x00	; 0
	.db #0x00	; 0
	.db #0x00	; 0
	.db #0x00	; 0
	.db #0x00	; 0
	.db #0x00	; 0
	.db #0x21	; 33
	.db #0x00	; 0
	.db #0x00	; 0
	.db #0x00	; 0
	.db #0x00	; 0
	.db #0x00	; 0
	.db #0x00	; 0
	.db #0x00	; 0
	.db #0x00	; 0
	.db #0x00	; 0
	.db #0x00	; 0
	.db #0x00	; 0
	.db #0x00	; 0
	.db #0x00	; 0
	.db #0x00	; 0
	.db #0x00	; 0
	.db #0x22	; 34
	.db #0x88	; 136
	.db #0x0c	; 12
	.db #0x00	; 0
	.db #0x00	; 0
	.db #0x00	; 0
	.db #0x00	; 0
	.db #0x00	; 0
	.db #0x00	; 0
	.db #0x00	; 0
	.db #0x20	; 32
	.db #0x00	; 0
	.db #0x00	; 0
	.db #0x00	; 0
	.db #0x00	; 0
	.db #0x00	; 0
	.db #0x00	; 0
	.db #0x21	; 33
	.db #0x00	; 0
	.db #0x00	; 0
	.db #0x00	; 0
	.db #0x00	; 0
	.db #0x00	; 0
	.db #0x00	; 0
	.db #0x00	; 0
	.db #0x00	; 0
	.db #0x00	; 0
	.db #0x00	; 0
	.db #0x00	; 0
	.db #0x00	; 0
	.db #0x00	; 0
_song2:
	.db #0x93	; 147
	.db #0x28	; 40
	.db #0x98	; 152
	.db #0x1f	; 31
	.db #0x91	; 145
	.db #0x2a	; 42
	.db #0x88	; 136
	.db #0x0c	; 12
	.db #0x00	; 0
	.db #0x00	; 0
	.db #0x00	; 0
	.db #0x00	; 0
	.db #0x00	; 0
	.db #0x28	; 40
	.db #0x00	; 0
	.db #0x20	; 32
	.db #0x00	; 0
	.db #0x28	; 40
	.db #0x00	; 0
	.db #0x00	; 0
	.db #0x00	; 0
	.db #0x93	; 147
	.db #0x1f	; 31
	.db #0x00	; 0
	.db #0x00	; 0
	.db #0x00	; 0
	.db #0x00	; 0
	.db #0x00	; 0
	.db #0x00	; 0
	.db #0x00	; 0
	.db #0x28	; 40
	.db #0x00	; 0
	.db #0x00	; 0
	.db #0x00	; 0
	.db #0x28	; 40
	.db #0x00	; 0
	.db #0x00	; 0
	.db #0x00	; 0
	.db #0x9a	; 154
	.db #0x1f	; 31
	.db #0x00	; 0
	.db #0x88	; 136
	.db #0x0c	; 12
	.db #0x00	; 0
	.db #0x00	; 0
	.db #0x00	; 0
	.db #0x00	; 0
	.db #0x00	; 0
	.db #0x28	; 40
	.db #0x00	; 0
	.db #0x20	; 32
	.db #0x00	; 0
	.db #0x28	; 40
	.db #0x00	; 0
	.db #0x00	; 0
	.db #0x00	; 0
	.db #0x98	; 152
	.db #0x1f	; 31
	.db #0x00	; 0
	.db #0x00	; 0
	.db #0x00	; 0
	.db #0x00	; 0
	.db #0x00	; 0
	.db #0x00	; 0
	.db #0x00	; 0
	.db #0x28	; 40
	.db #0x00	; 0
	.db #0x00	; 0
	.db #0x00	; 0
	.db #0x28	; 40
	.db #0x00	; 0
	.db #0x00	; 0
	.db #0x00	; 0
	.db #0x00	; 0
	.db #0x00	; 0
	.db #0x88	; 136
	.db #0x0c	; 12
	.db #0x00	; 0
	.db #0x00	; 0
	.db #0x00	; 0
	.db #0x00	; 0
	.db #0x00	; 0
	.db #0x00	; 0
	.db #0x00	; 0
	.db #0x20	; 32
	.db #0x00	; 0
	.db #0x00	; 0
	.db #0x00	; 0
	.db #0x00	; 0
	.db #0x98	; 152
	.db #0x1f	; 31
	.db #0x00	; 0
	.db #0x00	; 0
	.db #0x00	; 0
	.db #0x00	; 0
	.db #0x00	; 0
	.db #0x00	; 0
	.db #0x00	; 0
	.db #0x00	; 0
	.db #0x00	; 0
	.db #0x00	; 0
	.db #0x00	; 0
	.db #0x00	; 0
	.db #0x00	; 0
	.db #0x00	; 0
	.db #0x00	; 0
	.db #0x9a	; 154
	.db #0x1f	; 31
	.db #0x00	; 0
	.db #0x00	; 0
	.db #0x88	; 136
	.db #0x0c	; 12
	.db #0x00	; 0
	.db #0x00	; 0
	.db #0x00	; 0
	.db #0x00	; 0
	.db #0x00	; 0
	.db #0x00	; 0
	.db #0x00	; 0
	.db #0x20	; 32
	.db #0x00	; 0
	.db #0x00	; 0
	.db #0x00	; 0
	.db #0x00	; 0
	.db #0x9c	; 156
	.db #0x1f	; 31
	.db #0x00	; 0
	.db #0x00	; 0
	.db #0x88	; 136
	.db #0x0c	; 12
	.db #0x00	; 0
	.db #0x00	; 0
	.db #0x00	; 0
	.db #0x00	; 0
	.db #0x00	; 0
	.db #0x00	; 0
	.db #0x00	; 0
	.db #0x20	; 32
	.db #0x00	; 0
	.db #0x00	; 0
	.db #0x00	; 0
	.db #0x00	; 0
	.db #0x9c	; 156
	.db #0x1f	; 31
	.db #0x98	; 152
	.db #0x1f	; 31
	.db #0x90	; 144
	.db #0x2a	; 42
	.db #0x88	; 136
	.db #0x0c	; 12
	.db #0x00	; 0
	.db #0x00	; 0
	.db #0x00	; 0
	.db #0x00	; 0
	.db #0x00	; 0
	.db #0x28	; 40
	.db #0x00	; 0
	.db #0x20	; 32
	.db #0x00	; 0
	.db #0x28	; 40
	.db #0x00	; 0
	.db #0x00	; 0
	.db #0x00	; 0
	.db #0x93	; 147
	.db #0x1f	; 31
	.db #0x00	; 0
	.db #0x00	; 0
	.db #0x00	; 0
	.db #0x00	; 0
	.db #0x00	; 0
	.db #0x00	; 0
	.db #0x00	; 0
	.db #0x28	; 40
	.db #0x00	; 0
	.db #0x00	; 0
	.db #0x00	; 0
	.db #0x28	; 40
	.db #0x00	; 0
	.db #0x00	; 0
	.db #0x00	; 0
	.db #0x9a	; 154
	.db #0x1f	; 31
	.db #0x00	; 0
	.db #0x88	; 136
	.db #0x0c	; 12
	.db #0x00	; 0
	.db #0x00	; 0
	.db #0x00	; 0
	.db #0x00	; 0
	.db #0x00	; 0
	.db #0x28	; 40
	.db #0x00	; 0
	.db #0x20	; 32
	.db #0x00	; 0
	.db #0x28	; 40
	.db #0x00	; 0
	.db #0x00	; 0
	.db #0x00	; 0
	.db #0x98	; 152
	.db #0x1f	; 31
	.db #0x00	; 0
	.db #0x00	; 0
	.db #0x00	; 0
	.db #0x00	; 0
	.db #0x00	; 0
	.db #0x00	; 0
	.db #0x00	; 0
	.db #0x28	; 40
	.db #0x00	; 0
	.db #0x00	; 0
	.db #0x00	; 0
	.db #0x28	; 40
	.db #0x00	; 0
	.db #0x00	; 0
	.db #0x00	; 0
	.db #0x00	; 0
	.db #0x00	; 0
	.db #0x88	; 136
	.db #0x0c	; 12
	.db #0x00	; 0
	.db #0x00	; 0
	.db #0x00	; 0
	.db #0x00	; 0
	.db #0x00	; 0
	.db #0x00	; 0
	.db #0x00	; 0
	.db #0x20	; 32
	.db #0x00	; 0
	.db #0x00	; 0
	.db #0x00	; 0
	.db #0x00	; 0
	.db #0x00	; 0
	.db #0x00	; 0
	.db #0x00	; 0
	.db #0x00	; 0
	.db #0x00	; 0
	.db #0x00	; 0
	.db #0x00	; 0
	.db #0x00	; 0
	.db #0x00	; 0
	.db #0x00	; 0
	.db #0x00	; 0
	.db #0x00	; 0
	.db #0x00	; 0
	.db #0x00	; 0
	.db #0x00	; 0
	.db #0x00	; 0
	.db #0x00	; 0
	.db #0x00	; 0
	.db #0x00	; 0
	.db #0x88	; 136
	.db #0x0c	; 12
	.db #0x00	; 0
	.db #0x00	; 0
	.db #0x00	; 0
	.db #0x00	; 0
	.db #0x00	; 0
	.db #0x00	; 0
	.db #0x00	; 0
	.db #0x20	; 32
	.db #0x00	; 0
	.db #0x00	; 0
	.db #0x00	; 0
	.db #0x00	; 0
	.db #0x00	; 0
	.db #0x00	; 0
	.db #0x00	; 0
	.db #0x00	; 0
	.db #0x00	; 0
	.db #0x00	; 0
	.db #0x00	; 0
	.db #0x00	; 0
	.db #0x00	; 0
	.db #0x00	; 0
	.db #0x00	; 0
	.db #0x00	; 0
	.db #0x00	; 0
	.db #0x00	; 0
	.db #0x00	; 0
	.db #0x00	; 0
_song3:
	.db #0x00	; 0
	.db #0x00	; 0
	.db #0x00	; 0
	.db #0x00	; 0
	.db #0x00	; 0
	.db #0x00	; 0
	.db #0x00	; 0
	.db #0x00	; 0
	.db #0x00	; 0
	.db #0x00	; 0
	.db #0x00	; 0
	.db #0x00	; 0
	.db #0x00	; 0
	.db #0x00	; 0
	.db #0x00	; 0
	.db #0x00	; 0
	.db #0x00	; 0
	.db #0x00	; 0
	.db #0x00	; 0
	.db #0x00	; 0
	.db #0x00	; 0
	.db #0x00	; 0
	.db #0x00	; 0
	.db #0x00	; 0
	.db #0x00	; 0
	.db #0x00	; 0
	.db #0x00	; 0
	.db #0x00	; 0
	.db #0x00	; 0
	.db #0x00	; 0
	.db #0x00	; 0
	.db #0x00	; 0
	.db #0x00	; 0
	.db #0x00	; 0
	.db #0x00	; 0
	.db #0x00	; 0
	.db #0x00	; 0
	.db #0x00	; 0
	.db #0x00	; 0
	.db #0x00	; 0
	.db #0x00	; 0
	.db #0x00	; 0
	.db #0x00	; 0
	.db #0x00	; 0
	.db #0x00	; 0
	.db #0x00	; 0
	.db #0x00	; 0
	.db #0x00	; 0
	.db #0x00	; 0
	.db #0x00	; 0
	.db #0x00	; 0
	.db #0x00	; 0
	.db #0x00	; 0
	.db #0x00	; 0
	.db #0x00	; 0
	.db #0x00	; 0
	.db #0x00	; 0
	.db #0x00	; 0
	.db #0x00	; 0
	.db #0x00	; 0
	.db #0x00	; 0
	.db #0x00	; 0
	.db #0x00	; 0
	.db #0x00	; 0
	.db #0x00	; 0
	.db #0x00	; 0
	.db #0x00	; 0
	.db #0x00	; 0
	.db #0x00	; 0
	.db #0x00	; 0
	.db #0x00	; 0
	.db #0x00	; 0
	.db #0x00	; 0
	.db #0x00	; 0
	.db #0x00	; 0
	.db #0x00	; 0
	.db #0x00	; 0
	.db #0x00	; 0
	.db #0x00	; 0
	.db #0x00	; 0
	.db #0x00	; 0
	.db #0x00	; 0
	.db #0x00	; 0
	.db #0x00	; 0
	.db #0x00	; 0
	.db #0x00	; 0
	.db #0x00	; 0
	.db #0x00	; 0
	.db #0x00	; 0
	.db #0x00	; 0
	.db #0x00	; 0
	.db #0x00	; 0
	.db #0x00	; 0
	.db #0x00	; 0
	.db #0x00	; 0
	.db #0x00	; 0
	.db #0x00	; 0
	.db #0x00	; 0
	.db #0x00	; 0
	.db #0x00	; 0
	.db #0x00	; 0
	.db #0x00	; 0
	.db #0x00	; 0
	.db #0x00	; 0
	.db #0x00	; 0
	.db #0x00	; 0
	.db #0x00	; 0
	.db #0x00	; 0
	.db #0x00	; 0
	.db #0x00	; 0
	.db #0x00	; 0
	.db #0x00	; 0
	.db #0x00	; 0
	.db #0x00	; 0
	.db #0x00	; 0
	.db #0x00	; 0
	.db #0x00	; 0
	.db #0x00	; 0
	.db #0x00	; 0
	.db #0x00	; 0
	.db #0x00	; 0
	.db #0x00	; 0
	.db #0x00	; 0
	.db #0x00	; 0
	.db #0x00	; 0
	.db #0x00	; 0
	.db #0x00	; 0
	.db #0x00	; 0
	.db #0x00	; 0
	.db #0x00	; 0
	.db #0x00	; 0
	.db #0x00	; 0
	.db #0x00	; 0
	.db #0x00	; 0
	.db #0x00	; 0
	.db #0x00	; 0
	.db #0x00	; 0
	.db #0x00	; 0
	.db #0x00	; 0
	.db #0x00	; 0
	.db #0x00	; 0
	.db #0x00	; 0
	.db #0x00	; 0
	.db #0x00	; 0
	.db #0x00	; 0
	.db #0x00	; 0
	.db #0x00	; 0
	.db #0x00	; 0
	.db #0x00	; 0
	.db #0x00	; 0
	.db #0x00	; 0
	.db #0x00	; 0
	.db #0x00	; 0
	.db #0x00	; 0
	.db #0x00	; 0
	.db #0x00	; 0
	.db #0x00	; 0
	.db #0x00	; 0
	.db #0x00	; 0
	.db #0x00	; 0
	.db #0x00	; 0
	.db #0x00	; 0
	.db #0x00	; 0
	.db #0x00	; 0
	.db #0x00	; 0
	.db #0x00	; 0
	.db #0x00	; 0
	.db #0x00	; 0
	.db #0x00	; 0
	.db #0x00	; 0
	.db #0x00	; 0
	.db #0x00	; 0
	.db #0x00	; 0
	.db #0x00	; 0
	.db #0x00	; 0
	.db #0x00	; 0
	.db #0x00	; 0
	.db #0x00	; 0
	.db #0x00	; 0
	.db #0x00	; 0
	.db #0x00	; 0
	.db #0x00	; 0
	.db #0x00	; 0
	.db #0x00	; 0
	.db #0x00	; 0
	.db #0x00	; 0
	.db #0x00	; 0
	.db #0x00	; 0
	.db #0x00	; 0
	.db #0x00	; 0
	.db #0x00	; 0
	.db #0x00	; 0
	.db #0x00	; 0
	.db #0x00	; 0
	.db #0x00	; 0
	.db #0x00	; 0
	.db #0x00	; 0
	.db #0x00	; 0
	.db #0x00	; 0
	.db #0x00	; 0
	.db #0x00	; 0
	.db #0x00	; 0
	.db #0x00	; 0
	.db #0x00	; 0
	.db #0x00	; 0
	.db #0x00	; 0
	.db #0x00	; 0
	.db #0x00	; 0
	.db #0x00	; 0
	.db #0x00	; 0
	.db #0x00	; 0
	.db #0x00	; 0
	.db #0x00	; 0
	.db #0x00	; 0
	.db #0x00	; 0
	.db #0x00	; 0
	.db #0x00	; 0
	.db #0x00	; 0
	.db #0x00	; 0
	.db #0x00	; 0
	.db #0x00	; 0
	.db #0x00	; 0
	.db #0x00	; 0
	.db #0x00	; 0
	.db #0x00	; 0
	.db #0x00	; 0
	.db #0x00	; 0
	.db #0x00	; 0
	.db #0x00	; 0
	.db #0x00	; 0
	.db #0x00	; 0
	.db #0x00	; 0
	.db #0x00	; 0
	.db #0x00	; 0
	.db #0x00	; 0
	.db #0x00	; 0
	.db #0x00	; 0
	.db #0x00	; 0
	.db #0x00	; 0
	.db #0x00	; 0
	.db #0x00	; 0
	.db #0x00	; 0
	.db #0x00	; 0
	.db #0x00	; 0
	.db #0x00	; 0
	.db #0x00	; 0
	.db #0x00	; 0
	.db #0x00	; 0
	.db #0x00	; 0
	.db #0x00	; 0
	.db #0x00	; 0
	.db #0x00	; 0
	.db #0x00	; 0
	.db #0x00	; 0
	.db #0x00	; 0
	.db #0x00	; 0
_song4:
	.db #0x00	; 0
	.db #0x00	; 0
	.db #0x00	; 0
	.db #0x00	; 0
	.db #0x00	; 0
	.db #0x00	; 0
	.db #0x00	; 0
	.db #0x00	; 0
	.db #0x00	; 0
	.db #0x00	; 0
	.db #0x00	; 0
	.db #0x00	; 0
	.db #0x00	; 0
	.db #0x00	; 0
	.db #0x00	; 0
	.db #0x00	; 0
	.db #0x00	; 0
	.db #0x00	; 0
	.db #0x00	; 0
	.db #0x00	; 0
	.db #0x00	; 0
	.db #0x00	; 0
	.db #0x00	; 0
	.db #0x00	; 0
	.db #0x00	; 0
	.db #0x00	; 0
	.db #0x00	; 0
	.db #0x00	; 0
	.db #0x00	; 0
	.db #0x00	; 0
	.db #0x00	; 0
	.db #0x00	; 0
	.db #0x00	; 0
	.db #0x00	; 0
	.db #0x00	; 0
	.db #0x00	; 0
	.db #0x00	; 0
	.db #0x00	; 0
	.db #0x00	; 0
	.db #0x00	; 0
	.db #0x00	; 0
	.db #0x00	; 0
	.db #0x00	; 0
	.db #0x00	; 0
	.db #0x00	; 0
	.db #0x00	; 0
	.db #0x00	; 0
	.db #0x00	; 0
	.db #0x00	; 0
	.db #0x00	; 0
	.db #0x00	; 0
	.db #0x00	; 0
	.db #0x00	; 0
	.db #0x00	; 0
	.db #0x00	; 0
	.db #0x00	; 0
	.db #0x00	; 0
	.db #0x00	; 0
	.db #0x00	; 0
	.db #0x00	; 0
	.db #0x00	; 0
	.db #0x00	; 0
	.db #0x00	; 0
	.db #0x00	; 0
	.db #0x00	; 0
	.db #0x00	; 0
	.db #0x00	; 0
	.db #0x00	; 0
	.db #0x00	; 0
	.db #0x00	; 0
	.db #0x00	; 0
	.db #0x00	; 0
	.db #0x00	; 0
	.db #0x00	; 0
	.db #0x00	; 0
	.db #0x00	; 0
	.db #0x00	; 0
	.db #0x00	; 0
	.db #0x00	; 0
	.db #0x00	; 0
	.db #0x00	; 0
	.db #0x00	; 0
	.db #0x00	; 0
	.db #0x00	; 0
	.db #0x00	; 0
	.db #0x00	; 0
	.db #0x00	; 0
	.db #0x00	; 0
	.db #0x00	; 0
	.db #0x00	; 0
	.db #0x00	; 0
	.db #0x00	; 0
	.db #0x00	; 0
	.db #0x00	; 0
	.db #0x00	; 0
	.db #0x00	; 0
	.db #0x00	; 0
	.db #0x00	; 0
	.db #0x00	; 0
	.db #0x00	; 0
	.db #0x00	; 0
	.db #0x00	; 0
	.db #0x00	; 0
	.db #0x00	; 0
	.db #0x00	; 0
	.db #0x00	; 0
	.db #0x00	; 0
	.db #0x00	; 0
	.db #0x00	; 0
	.db #0x00	; 0
	.db #0x00	; 0
	.db #0x00	; 0
	.db #0x00	; 0
	.db #0x00	; 0
	.db #0x00	; 0
	.db #0x00	; 0
	.db #0x00	; 0
	.db #0x00	; 0
	.db #0x00	; 0
	.db #0x00	; 0
	.db #0x00	; 0
	.db #0x00	; 0
	.db #0x00	; 0
	.db #0x00	; 0
	.db #0x00	; 0
	.db #0x00	; 0
	.db #0x00	; 0
	.db #0x00	; 0
	.db #0x00	; 0
	.db #0x00	; 0
	.db #0x00	; 0
	.db #0x00	; 0
	.db #0x00	; 0
	.db #0x00	; 0
	.db #0x00	; 0
	.db #0x00	; 0
	.db #0x00	; 0
	.db #0x00	; 0
	.db #0x00	; 0
	.db #0x00	; 0
	.db #0x00	; 0
	.db #0x00	; 0
	.db #0x00	; 0
	.db #0x00	; 0
	.db #0x00	; 0
	.db #0x00	; 0
	.db #0x00	; 0
	.db #0x00	; 0
	.db #0x00	; 0
	.db #0x00	; 0
	.db #0x00	; 0
	.db #0x00	; 0
	.db #0x00	; 0
	.db #0x00	; 0
	.db #0x00	; 0
	.db #0x00	; 0
	.db #0x00	; 0
	.db #0x00	; 0
	.db #0x00	; 0
	.db #0x00	; 0
	.db #0x00	; 0
	.db #0x00	; 0
	.db #0x00	; 0
	.db #0x00	; 0
	.db #0x00	; 0
	.db #0x00	; 0
	.db #0x00	; 0
	.db #0x00	; 0
	.db #0x00	; 0
	.db #0x00	; 0
	.db #0x00	; 0
	.db #0x00	; 0
	.db #0x00	; 0
	.db #0x00	; 0
	.db #0x00	; 0
	.db #0x00	; 0
	.db #0x00	; 0
	.db #0x00	; 0
	.db #0x00	; 0
	.db #0x00	; 0
	.db #0x00	; 0
	.db #0x00	; 0
	.db #0x00	; 0
	.db #0x00	; 0
	.db #0x00	; 0
	.db #0x00	; 0
	.db #0x00	; 0
	.db #0x00	; 0
	.db #0x00	; 0
	.db #0x00	; 0
	.db #0x00	; 0
	.db #0x00	; 0
	.db #0x00	; 0
	.db #0x00	; 0
	.db #0x00	; 0
	.db #0x00	; 0
	.db #0x00	; 0
	.db #0x00	; 0
	.db #0x00	; 0
	.db #0x00	; 0
	.db #0x00	; 0
	.db #0x00	; 0
	.db #0x00	; 0
	.db #0x00	; 0
	.db #0x00	; 0
	.db #0x00	; 0
	.db #0x00	; 0
	.db #0x00	; 0
	.db #0x00	; 0
	.db #0x00	; 0
	.db #0x00	; 0
	.db #0x00	; 0
	.db #0x00	; 0
	.db #0x00	; 0
	.db #0x00	; 0
	.db #0x00	; 0
	.db #0x00	; 0
	.db #0x00	; 0
	.db #0x00	; 0
	.db #0x00	; 0
	.db #0x00	; 0
	.db #0x00	; 0
	.db #0x00	; 0
	.db #0x00	; 0
	.db #0x00	; 0
	.db #0x00	; 0
	.db #0x00	; 0
	.db #0x00	; 0
	.db #0x00	; 0
	.db #0x00	; 0
	.db #0x00	; 0
	.db #0x00	; 0
	.db #0x00	; 0
	.db #0x00	; 0
	.db #0x00	; 0
	.db #0x00	; 0
	.db #0x00	; 0
	.db #0x00	; 0
	.db #0x00	; 0
	.db #0x00	; 0
	.db #0x00	; 0
	.db #0x00	; 0
	.db #0x00	; 0
	.db #0x00	; 0
	.db #0x00	; 0
	.db #0x00	; 0
	.db #0x00	; 0
	.db #0x00	; 0
	.db #0x00	; 0
	.db #0x00	; 0
	.db #0x00	; 0
	.db #0x00	; 0
	.db #0x00	; 0
	.db #0x00	; 0
	.db #0x00	; 0
	.db #0x00	; 0
_song5:
	.db #0x00	; 0
	.db #0x00	; 0
	.db #0x00	; 0
	.db #0x00	; 0
	.db #0x00	; 0
	.db #0x00	; 0
	.db #0x00	; 0
	.db #0x00	; 0
	.db #0x00	; 0
	.db #0x00	; 0
	.db #0x00	; 0
	.db #0x00	; 0
	.db #0x00	; 0
	.db #0x00	; 0
	.db #0x00	; 0
	.db #0x00	; 0
	.db #0x00	; 0
	.db #0x00	; 0
	.db #0x00	; 0
	.db #0x00	; 0
	.db #0x00	; 0
	.db #0x00	; 0
	.db #0x00	; 0
	.db #0x00	; 0
	.db #0x00	; 0
	.db #0x00	; 0
	.db #0x00	; 0
	.db #0x00	; 0
	.db #0x00	; 0
	.db #0x00	; 0
	.db #0x00	; 0
	.db #0x00	; 0
	.db #0x00	; 0
	.db #0x00	; 0
	.db #0x00	; 0
	.db #0x00	; 0
	.db #0x00	; 0
	.db #0x00	; 0
	.db #0x00	; 0
	.db #0x00	; 0
	.db #0x00	; 0
	.db #0x00	; 0
	.db #0x00	; 0
	.db #0x00	; 0
	.db #0x00	; 0
	.db #0x00	; 0
	.db #0x00	; 0
	.db #0x00	; 0
	.db #0x00	; 0
	.db #0x00	; 0
	.db #0x00	; 0
	.db #0x00	; 0
	.db #0x00	; 0
	.db #0x00	; 0
	.db #0x00	; 0
	.db #0x00	; 0
	.db #0x00	; 0
	.db #0x00	; 0
	.db #0x00	; 0
	.db #0x00	; 0
	.db #0x00	; 0
	.db #0x00	; 0
	.db #0x00	; 0
	.db #0x00	; 0
	.db #0x00	; 0
	.db #0x00	; 0
	.db #0x00	; 0
	.db #0x00	; 0
	.db #0x00	; 0
	.db #0x00	; 0
	.db #0x00	; 0
	.db #0x00	; 0
	.db #0x00	; 0
	.db #0x00	; 0
	.db #0x00	; 0
	.db #0x00	; 0
	.db #0x00	; 0
	.db #0x00	; 0
	.db #0x00	; 0
	.db #0x00	; 0
	.db #0x00	; 0
	.db #0x00	; 0
	.db #0x00	; 0
	.db #0x00	; 0
	.db #0x00	; 0
	.db #0x00	; 0
	.db #0x00	; 0
	.db #0x00	; 0
	.db #0x00	; 0
	.db #0x00	; 0
	.db #0x00	; 0
	.db #0x00	; 0
	.db #0x00	; 0
	.db #0x00	; 0
	.db #0x00	; 0
	.db #0x00	; 0
	.db #0x00	; 0
	.db #0x00	; 0
	.db #0x00	; 0
	.db #0x00	; 0
	.db #0x00	; 0
	.db #0x00	; 0
	.db #0x00	; 0
	.db #0x00	; 0
	.db #0x00	; 0
	.db #0x00	; 0
	.db #0x00	; 0
	.db #0x00	; 0
	.db #0x00	; 0
	.db #0x00	; 0
	.db #0x00	; 0
	.db #0x00	; 0
	.db #0x00	; 0
	.db #0x00	; 0
	.db #0x00	; 0
	.db #0x00	; 0
	.db #0x00	; 0
	.db #0x00	; 0
	.db #0x00	; 0
	.db #0x00	; 0
	.db #0x00	; 0
	.db #0x00	; 0
	.db #0x00	; 0
	.db #0x00	; 0
	.db #0x00	; 0
	.db #0x00	; 0
	.db #0x00	; 0
	.db #0x00	; 0
	.db #0x00	; 0
	.db #0x00	; 0
	.db #0x00	; 0
	.db #0x00	; 0
	.db #0x00	; 0
	.db #0x00	; 0
	.db #0x00	; 0
	.db #0x00	; 0
	.db #0x00	; 0
	.db #0x00	; 0
	.db #0x00	; 0
	.db #0x00	; 0
	.db #0x00	; 0
	.db #0x00	; 0
	.db #0x00	; 0
	.db #0x00	; 0
	.db #0x00	; 0
	.db #0x00	; 0
	.db #0x00	; 0
	.db #0x00	; 0
	.db #0x00	; 0
	.db #0x00	; 0
	.db #0x00	; 0
	.db #0x00	; 0
	.db #0x00	; 0
	.db #0x00	; 0
	.db #0x00	; 0
	.db #0x00	; 0
	.db #0x00	; 0
	.db #0x00	; 0
	.db #0x00	; 0
	.db #0x00	; 0
	.db #0x00	; 0
	.db #0x00	; 0
	.db #0x00	; 0
	.db #0x00	; 0
	.db #0x00	; 0
	.db #0x00	; 0
	.db #0x00	; 0
	.db #0x00	; 0
	.db #0x00	; 0
	.db #0x00	; 0
	.db #0x00	; 0
	.db #0x00	; 0
	.db #0x00	; 0
	.db #0x00	; 0
	.db #0x00	; 0
	.db #0x00	; 0
	.db #0x00	; 0
	.db #0x00	; 0
	.db #0x00	; 0
	.db #0x00	; 0
	.db #0x00	; 0
	.db #0x00	; 0
	.db #0x00	; 0
	.db #0x00	; 0
	.db #0x00	; 0
	.db #0x00	; 0
	.db #0x00	; 0
	.db #0x00	; 0
	.db #0x00	; 0
	.db #0x00	; 0
	.db #0x00	; 0
	.db #0x00	; 0
	.db #0x00	; 0
	.db #0x00	; 0
	.db #0x00	; 0
	.db #0x00	; 0
	.db #0x00	; 0
	.db #0x00	; 0
	.db #0x00	; 0
	.db #0x00	; 0
	.db #0x00	; 0
	.db #0x00	; 0
	.db #0x00	; 0
	.db #0x00	; 0
	.db #0x00	; 0
	.db #0x00	; 0
	.db #0x00	; 0
	.db #0x00	; 0
	.db #0x00	; 0
	.db #0x00	; 0
	.db #0x00	; 0
	.db #0x00	; 0
	.db #0x00	; 0
	.db #0x00	; 0
	.db #0x00	; 0
	.db #0x00	; 0
	.db #0x00	; 0
	.db #0x00	; 0
	.db #0x00	; 0
	.db #0x00	; 0
	.db #0x00	; 0
	.db #0x00	; 0
	.db #0x00	; 0
	.db #0x00	; 0
	.db #0x00	; 0
	.db #0x00	; 0
	.db #0x00	; 0
	.db #0x00	; 0
	.db #0x00	; 0
	.db #0x00	; 0
	.db #0x00	; 0
	.db #0x00	; 0
	.db #0x00	; 0
	.db #0x00	; 0
	.db #0x00	; 0
	.db #0x00	; 0
	.db #0x00	; 0
	.db #0x00	; 0
	.db #0x00	; 0
	.db #0x00	; 0
	.db #0x00	; 0
	.db #0x00	; 0
	.db #0x00	; 0
	.db #0x00	; 0
	.db #0x00	; 0
	.db #0x00	; 0
	.db #0x00	; 0
	.db #0x00	; 0
	.db #0x00	; 0
	.db #0x00	; 0
	.db #0x00	; 0
	.db #0x00	; 0
	.db #0x00	; 0
	.db #0x00	; 0
	.db #0x00	; 0
	.db #0x00	; 0
_song6:
	.db #0x00	; 0
	.db #0x98	; 152
	.db #0x1f	; 31
	.db #0x91	; 145
	.db #0x2a	; 42
	.db #0x88	; 136
	.db #0x0c	; 12
	.db #0x00	; 0
	.db #0x00	; 0
	.db #0x00	; 0
	.db #0x00	; 0
	.db #0x00	; 0
	.db #0x28	; 40
	.db #0x00	; 0
	.db #0x20	; 32
	.db #0x00	; 0
	.db #0x28	; 40
	.db #0x00	; 0
	.db #0x00	; 0
	.db #0x00	; 0
	.db #0x93	; 147
	.db #0x1f	; 31
	.db #0x00	; 0
	.db #0x00	; 0
	.db #0x00	; 0
	.db #0x00	; 0
	.db #0x00	; 0
	.db #0x00	; 0
	.db #0x00	; 0
	.db #0x28	; 40
	.db #0x00	; 0
	.db #0x00	; 0
	.db #0x00	; 0
	.db #0x28	; 40
	.db #0x00	; 0
	.db #0x00	; 0
	.db #0x00	; 0
	.db #0x9a	; 154
	.db #0x1f	; 31
	.db #0x00	; 0
	.db #0x88	; 136
	.db #0x0c	; 12
	.db #0x00	; 0
	.db #0x00	; 0
	.db #0x00	; 0
	.db #0x00	; 0
	.db #0x00	; 0
	.db #0x28	; 40
	.db #0x00	; 0
	.db #0x20	; 32
	.db #0x00	; 0
	.db #0x28	; 40
	.db #0x00	; 0
	.db #0x00	; 0
	.db #0x00	; 0
	.db #0x98	; 152
	.db #0x1f	; 31
	.db #0x00	; 0
	.db #0x00	; 0
	.db #0x00	; 0
	.db #0x00	; 0
	.db #0x00	; 0
	.db #0x00	; 0
	.db #0x00	; 0
	.db #0x28	; 40
	.db #0x00	; 0
	.db #0x00	; 0
	.db #0x00	; 0
	.db #0x28	; 40
	.db #0x00	; 0
	.db #0x00	; 0
	.db #0x00	; 0
	.db #0x00	; 0
	.db #0x00	; 0
	.db #0x88	; 136
	.db #0x0c	; 12
	.db #0x00	; 0
	.db #0x00	; 0
	.db #0x00	; 0
	.db #0x00	; 0
	.db #0x00	; 0
	.db #0x00	; 0
	.db #0x00	; 0
	.db #0x20	; 32
	.db #0x00	; 0
	.db #0x00	; 0
	.db #0x00	; 0
	.db #0x00	; 0
	.db #0x00	; 0
	.db #0x00	; 0
	.db #0x00	; 0
	.db #0x00	; 0
	.db #0x00	; 0
	.db #0x00	; 0
	.db #0x00	; 0
	.db #0x00	; 0
	.db #0x00	; 0
	.db #0x00	; 0
	.db #0x00	; 0
	.db #0x00	; 0
	.db #0x00	; 0
	.db #0x00	; 0
	.db #0x00	; 0
	.db #0x00	; 0
	.db #0x00	; 0
	.db #0x00	; 0
	.db #0x00	; 0
	.db #0x88	; 136
	.db #0x0c	; 12
	.db #0x00	; 0
	.db #0x00	; 0
	.db #0x00	; 0
	.db #0x00	; 0
	.db #0x00	; 0
	.db #0x00	; 0
	.db #0x00	; 0
	.db #0x20	; 32
	.db #0x00	; 0
	.db #0x00	; 0
	.db #0x00	; 0
	.db #0x00	; 0
	.db #0x00	; 0
	.db #0x00	; 0
	.db #0x00	; 0
	.db #0x88	; 136
	.db #0x0c	; 12
	.db #0x00	; 0
	.db #0x00	; 0
	.db #0x00	; 0
	.db #0x00	; 0
	.db #0x00	; 0
	.db #0x00	; 0
	.db #0x00	; 0
	.db #0x20	; 32
	.db #0x00	; 0
	.db #0x00	; 0
	.db #0x00	; 0
	.db #0x00	; 0
	.db #0x00	; 0
	.db #0x98	; 152
	.db #0x1f	; 31
	.db #0x90	; 144
	.db #0x2a	; 42
	.db #0x88	; 136
	.db #0x0c	; 12
	.db #0x00	; 0
	.db #0x00	; 0
	.db #0x00	; 0
	.db #0x00	; 0
	.db #0x00	; 0
	.db #0x28	; 40
	.db #0x00	; 0
	.db #0x20	; 32
	.db #0x00	; 0
	.db #0x28	; 40
	.db #0x00	; 0
	.db #0x00	; 0
	.db #0x00	; 0
	.db #0x93	; 147
	.db #0x1f	; 31
	.db #0x00	; 0
	.db #0x00	; 0
	.db #0x00	; 0
	.db #0x00	; 0
	.db #0x00	; 0
	.db #0x00	; 0
	.db #0x00	; 0
	.db #0x28	; 40
	.db #0x00	; 0
	.db #0x00	; 0
	.db #0x00	; 0
	.db #0x28	; 40
	.db #0x00	; 0
	.db #0x00	; 0
	.db #0x00	; 0
	.db #0x9a	; 154
	.db #0x1f	; 31
	.db #0x00	; 0
	.db #0x88	; 136
	.db #0x0c	; 12
	.db #0x00	; 0
	.db #0x00	; 0
	.db #0x00	; 0
	.db #0x00	; 0
	.db #0x00	; 0
	.db #0x28	; 40
	.db #0x00	; 0
	.db #0x20	; 32
	.db #0x00	; 0
	.db #0x28	; 40
	.db #0x00	; 0
	.db #0x00	; 0
	.db #0x00	; 0
	.db #0x98	; 152
	.db #0x1f	; 31
	.db #0x00	; 0
	.db #0x00	; 0
	.db #0x00	; 0
	.db #0x00	; 0
	.db #0x00	; 0
	.db #0x00	; 0
	.db #0x00	; 0
	.db #0x28	; 40
	.db #0x00	; 0
	.db #0x00	; 0
	.db #0x00	; 0
	.db #0x28	; 40
	.db #0x00	; 0
	.db #0x00	; 0
	.db #0x00	; 0
	.db #0x00	; 0
	.db #0x00	; 0
	.db #0x88	; 136
	.db #0x0c	; 12
	.db #0x00	; 0
	.db #0x00	; 0
	.db #0x00	; 0
	.db #0x00	; 0
	.db #0x00	; 0
	.db #0x00	; 0
	.db #0x00	; 0
	.db #0x20	; 32
	.db #0x00	; 0
	.db #0x00	; 0
	.db #0x00	; 0
	.db #0x00	; 0
	.db #0x00	; 0
	.db #0x00	; 0
	.db #0x00	; 0
	.db #0x00	; 0
	.db #0x00	; 0
	.db #0x00	; 0
	.db #0x00	; 0
	.db #0x00	; 0
	.db #0x00	; 0
	.db #0x00	; 0
	.db #0x00	; 0
	.db #0x00	; 0
	.db #0x00	; 0
	.db #0x00	; 0
	.db #0x00	; 0
	.db #0x00	; 0
	.db #0x00	; 0
	.db #0x00	; 0
	.db #0x00	; 0
	.db #0x88	; 136
	.db #0x0c	; 12
	.db #0x00	; 0
	.db #0x00	; 0
	.db #0x00	; 0
	.db #0x00	; 0
	.db #0x00	; 0
	.db #0x00	; 0
	.db #0x00	; 0
	.db #0x20	; 32
	.db #0x00	; 0
	.db #0x00	; 0
	.db #0x00	; 0
	.db #0x00	; 0
	.db #0x00	; 0
	.db #0x00	; 0
	.db #0x00	; 0
	.db #0x00	; 0
	.db #0x00	; 0
	.db #0x00	; 0
	.db #0x00	; 0
	.db #0x00	; 0
	.db #0x00	; 0
	.db #0x00	; 0
	.db #0x00	; 0
	.db #0x00	; 0
	.db #0x00	; 0
	.db #0x00	; 0
	.db #0x00	; 0
	.db #0x00	; 0
_song7:
	.db #0x95	; 149
	.db #0x2c	; 44
	.db #0x98	; 152
	.db #0x1f	; 31
	.db #0x91	; 145
	.db #0x2a	; 42
	.db #0x88	; 136
	.db #0x0c	; 12
	.db #0x24	; 36
	.db #0x00	; 0
	.db #0x00	; 0
	.db #0x00	; 0
	.db #0x2c	; 44
	.db #0x28	; 40
	.db #0x00	; 0
	.db #0x20	; 32
	.db #0x24	; 36
	.db #0x28	; 40
	.db #0x00	; 0
	.db #0x00	; 0
	.db #0x2c	; 44
	.db #0x93	; 147
	.db #0x1f	; 31
	.db #0x21	; 33
	.db #0x00	; 0
	.db #0x24	; 36
	.db #0x00	; 0
	.db #0x00	; 0
	.db #0x00	; 0
	.db #0x2c	; 44
	.db #0x28	; 40
	.db #0x00	; 0
	.db #0x00	; 0
	.db #0x24	; 36
	.db #0x28	; 40
	.db #0x00	; 0
	.db #0x00	; 0
	.db #0x2c	; 44
	.db #0x9a	; 154
	.db #0x1f	; 31
	.db #0x22	; 34
	.db #0x88	; 136
	.db #0x0c	; 12
	.db #0x24	; 36
	.db #0x00	; 0
	.db #0x00	; 0
	.db #0x00	; 0
	.db #0x2c	; 44
	.db #0x28	; 40
	.db #0x00	; 0
	.db #0x20	; 32
	.db #0x24	; 36
	.db #0x28	; 40
	.db #0x00	; 0
	.db #0x00	; 0
	.db #0x2c	; 44
	.db #0x98	; 152
	.db #0x1f	; 31
	.db #0x21	; 33
	.db #0x00	; 0
	.db #0x24	; 36
	.db #0x00	; 0
	.db #0x00	; 0
	.db #0x00	; 0
	.db #0x2c	; 44
	.db #0x28	; 40
	.db #0x00	; 0
	.db #0x00	; 0
	.db #0x24	; 36
	.db #0x28	; 40
	.db #0x00	; 0
	.db #0x00	; 0
	.db #0x2c	; 44
	.db #0x00	; 0
	.db #0x22	; 34
	.db #0x88	; 136
	.db #0x0c	; 12
	.db #0x24	; 36
	.db #0x00	; 0
	.db #0x00	; 0
	.db #0x00	; 0
	.db #0x2c	; 44
	.db #0x00	; 0
	.db #0x00	; 0
	.db #0x20	; 32
	.db #0x24	; 36
	.db #0x00	; 0
	.db #0x00	; 0
	.db #0x00	; 0
	.db #0x9a	; 154
	.db #0x2c	; 44
	.db #0x00	; 0
	.db #0x21	; 33
	.db #0x00	; 0
	.db #0x24	; 36
	.db #0x00	; 0
	.db #0x00	; 0
	.db #0x00	; 0
	.db #0x2c	; 44
	.db #0x00	; 0
	.db #0x00	; 0
	.db #0x00	; 0
	.db #0x24	; 36
	.db #0x00	; 0
	.db #0x00	; 0
	.db #0x00	; 0
	.db #0x9a	; 154
	.db #0x2c	; 44
	.db #0x00	; 0
	.db #0x22	; 34
	.db #0x88	; 136
	.db #0x0c	; 12
	.db #0x24	; 36
	.db #0x00	; 0
	.db #0x00	; 0
	.db #0x00	; 0
	.db #0x2c	; 44
	.db #0x00	; 0
	.db #0x00	; 0
	.db #0x20	; 32
	.db #0x24	; 36
	.db #0x00	; 0
	.db #0x00	; 0
	.db #0x00	; 0
	.db #0x2c	; 44
	.db #0x00	; 0
	.db #0x21	; 33
	.db #0x88	; 136
	.db #0x0c	; 12
	.db #0x24	; 36
	.db #0x00	; 0
	.db #0x00	; 0
	.db #0x00	; 0
	.db #0x2c	; 44
	.db #0x00	; 0
	.db #0x00	; 0
	.db #0x20	; 32
	.db #0x24	; 36
	.db #0x00	; 0
	.db #0x00	; 0
	.db #0x00	; 0
	.db #0x98	; 152
	.db #0x2c	; 44
	.db #0x98	; 152
	.db #0x1f	; 31
	.db #0x90	; 144
	.db #0x2a	; 42
	.db #0x88	; 136
	.db #0x0c	; 12
	.db #0x24	; 36
	.db #0x00	; 0
	.db #0x00	; 0
	.db #0x00	; 0
	.db #0x2c	; 44
	.db #0x28	; 40
	.db #0x00	; 0
	.db #0x20	; 32
	.db #0x24	; 36
	.db #0x28	; 40
	.db #0x00	; 0
	.db #0x00	; 0
	.db #0x2c	; 44
	.db #0x93	; 147
	.db #0x1f	; 31
	.db #0x21	; 33
	.db #0x00	; 0
	.db #0x24	; 36
	.db #0x00	; 0
	.db #0x00	; 0
	.db #0x00	; 0
	.db #0x2c	; 44
	.db #0x28	; 40
	.db #0x00	; 0
	.db #0x00	; 0
	.db #0x24	; 36
	.db #0x28	; 40
	.db #0x00	; 0
	.db #0x00	; 0
	.db #0x2c	; 44
	.db #0x9a	; 154
	.db #0x1f	; 31
	.db #0x22	; 34
	.db #0x88	; 136
	.db #0x0c	; 12
	.db #0x24	; 36
	.db #0x00	; 0
	.db #0x00	; 0
	.db #0x00	; 0
	.db #0x2c	; 44
	.db #0x28	; 40
	.db #0x00	; 0
	.db #0x20	; 32
	.db #0x24	; 36
	.db #0x28	; 40
	.db #0x00	; 0
	.db #0x00	; 0
	.db #0x95	; 149
	.db #0x2c	; 44
	.db #0x98	; 152
	.db #0x1f	; 31
	.db #0x21	; 33
	.db #0x00	; 0
	.db #0x24	; 36
	.db #0x00	; 0
	.db #0x00	; 0
	.db #0x00	; 0
	.db #0x2c	; 44
	.db #0x28	; 40
	.db #0x00	; 0
	.db #0x00	; 0
	.db #0x24	; 36
	.db #0x28	; 40
	.db #0x00	; 0
	.db #0x00	; 0
	.db #0x2c	; 44
	.db #0x00	; 0
	.db #0x22	; 34
	.db #0x88	; 136
	.db #0x0c	; 12
	.db #0x24	; 36
	.db #0x00	; 0
	.db #0x00	; 0
	.db #0x00	; 0
	.db #0x2c	; 44
	.db #0x00	; 0
	.db #0x00	; 0
	.db #0x20	; 32
	.db #0x24	; 36
	.db #0x00	; 0
	.db #0x00	; 0
	.db #0x00	; 0
	.db #0x2c	; 44
	.db #0x00	; 0
	.db #0x21	; 33
	.db #0x00	; 0
	.db #0x24	; 36
	.db #0x00	; 0
	.db #0x00	; 0
	.db #0x00	; 0
	.db #0x2c	; 44
	.db #0x00	; 0
	.db #0x00	; 0
	.db #0x00	; 0
	.db #0x24	; 36
	.db #0x00	; 0
	.db #0x00	; 0
	.db #0x00	; 0
	.db #0x2c	; 44
	.db #0x00	; 0
	.db #0x22	; 34
	.db #0x88	; 136
	.db #0x0c	; 12
	.db #0x24	; 36
	.db #0x00	; 0
	.db #0x00	; 0
	.db #0x00	; 0
	.db #0x2c	; 44
	.db #0x00	; 0
	.db #0x00	; 0
	.db #0x20	; 32
	.db #0x24	; 36
	.db #0x00	; 0
	.db #0x00	; 0
	.db #0x00	; 0
	.db #0x2c	; 44
	.db #0x00	; 0
	.db #0x21	; 33
	.db #0x00	; 0
	.db #0x24	; 36
	.db #0x00	; 0
	.db #0x00	; 0
	.db #0x00	; 0
	.db #0x2c	; 44
	.db #0x00	; 0
	.db #0x00	; 0
	.db #0x00	; 0
	.db #0x24	; 36
	.db #0x00	; 0
	.db #0x00	; 0
	.db #0x00	; 0
;bank11.c:13: void Play_Use()
;	---------------------------------
; Function Play_Use
; ---------------------------------
_Play_Use::
;bank11.c:15: NR10_REG = 0x27;
	ld	a, #0x27
	ldh	(_NR10_REG+0),a
;bank11.c:16: NR11_REG = 0x41;
	ld	a, #0x41
	ldh	(_NR11_REG+0),a
;bank11.c:17: NR12_REG = 0xF3;
	ld	a, #0xf3
	ldh	(_NR12_REG+0),a
;bank11.c:18: NR13_REG = 0x5E;
	ld	a, #0x5e
	ldh	(_NR13_REG+0),a
;bank11.c:19: NR14_REG = 0x86;
	ld	a, #0x86
	ldh	(_NR14_REG+0),a
;bank11.c:20: }
	ret
;bank11.c:22: void Play_Confirm()
;	---------------------------------
; Function Play_Confirm
; ---------------------------------
_Play_Confirm::
;bank11.c:24: NR10_REG = 0x34;
	ld	a, #0x34
	ldh	(_NR10_REG+0),a
;bank11.c:25: NR11_REG = 0x81;
	ld	a, #0x81
	ldh	(_NR11_REG+0),a
;bank11.c:26: NR12_REG = 0xF3;
	ld	a, #0xf3
	ldh	(_NR12_REG+0),a
;bank11.c:27: NR13_REG = 0x08;
	ld	a, #0x08
	ldh	(_NR13_REG+0),a
;bank11.c:28: NR14_REG = 0x87;
	ld	a, #0x87
	ldh	(_NR14_REG+0),a
;bank11.c:29: }
	ret
	.area _CODE_11
	.area _CABS (ABS)
