;--------------------------------------------------------
; File Created by SDCC : free open source ANSI-C Compiler
; Version 4.0.4 #11952 (MINGW64)
;--------------------------------------------------------
	.module bank3
	.optsdcc -mgbz80
	
;--------------------------------------------------------
; Public variables in this module
;--------------------------------------------------------
	.globl _Load_Hiro_Tiles
	.globl _Draw_Titlescreen
	.globl _Reload_Map
	.globl _Draw_Map
	.globl _Load_Map
	.globl _Load_Tileset
	.globl _Clear_Map
	.globl _Get_Map
	.globl _Call_Hide_Char
	.globl _Call_Move_Char
	.globl _Call_Reset_NPC
	.globl _Call_Add_NPC
	.globl _Call_Draw_Map
	.globl _Call_Draw_Map_Load
	.globl _set_bkg_tileset
	.globl _set_bkg_tiles
	.globl _display_off
	.globl _wait_vbl_done
	.globl _set_sprite_palette
	.globl _set_bkg_palette
	.globl _sprite_slot
	.globl _offset_pos_y
	.globl _offset_pos_x
	.globl _Palette_Sprite_1
	.globl _Palette_BKG
	.globl _Tileset_3
	.globl _Tileset_2
	.globl _Tileset_1
	.globl _Map_ClearPLN1
	.globl _Map_ClearPLN0
	.globl _Orient_Player
	.globl _Orient_Char
;--------------------------------------------------------
; special function registers
;--------------------------------------------------------
;--------------------------------------------------------
; ram data
;--------------------------------------------------------
	.area _DATA
_offset_pos_x::
	.ds 1
_offset_pos_y::
	.ds 1
_sprite_slot::
	.ds 6
;--------------------------------------------------------
; absolute external ram data
;--------------------------------------------------------
	.area _DABS (ABS)
;--------------------------------------------------------
; global & static initialisations
;--------------------------------------------------------
	.area _HOME
	.area _GSINIT
	.area _GSFINAL
	.area _GSINIT
;--------------------------------------------------------
; Home
;--------------------------------------------------------
	.area _HOME
	.area _HOME
;--------------------------------------------------------
; code
;--------------------------------------------------------
	.area _CODE_3
;bank3.c:66: void Clear_Map()
;	---------------------------------
; Function Clear_Map
; ---------------------------------
_Clear_Map::
;bank3.c:68: set_bkg_tiles(0, 0, 32, 32, Map_ClearPLN0);
	ld	hl, #_Map_ClearPLN0
	push	hl
	ld	de, #0x2020
	push	de
	xor	a, a
	push	af
	inc	sp
	xor	a, a
	push	af
	inc	sp
	call	_set_bkg_tiles
	add	sp, #6
;bank3.c:69: }
	ret
_Map_ClearPLN0:
	.db #0x00	; 0
	.db #0x00	; 0
	.db #0x00	; 0
	.db #0x00	; 0
	.db #0x00	; 0
	.db #0x00	; 0
	.db #0x00	; 0
	.db #0x00	; 0
	.db #0x00	; 0
	.db #0x00	; 0
	.db #0x00	; 0
	.db #0x00	; 0
	.db #0x00	; 0
	.db #0x00	; 0
	.db #0x00	; 0
	.db #0x00	; 0
	.db #0x00	; 0
	.db #0x00	; 0
	.db #0x00	; 0
	.db #0x00	; 0
	.db #0x00	; 0
	.db #0x00	; 0
	.db #0x00	; 0
	.db #0x00	; 0
	.db #0x00	; 0
	.db #0x00	; 0
	.db #0x00	; 0
	.db #0x00	; 0
	.db #0x00	; 0
	.db #0x00	; 0
	.db #0x00	; 0
	.db #0x00	; 0
	.db #0x00	; 0
	.db #0x00	; 0
	.db #0x00	; 0
	.db #0x00	; 0
	.db #0x00	; 0
	.db #0x00	; 0
	.db #0x00	; 0
	.db #0x00	; 0
	.db #0x00	; 0
	.db #0x00	; 0
	.db #0x00	; 0
	.db #0x00	; 0
	.db #0x00	; 0
	.db #0x00	; 0
	.db #0x00	; 0
	.db #0x00	; 0
	.db #0x00	; 0
	.db #0x00	; 0
	.db #0x00	; 0
	.db #0x00	; 0
	.db #0x00	; 0
	.db #0x00	; 0
	.db #0x00	; 0
	.db #0x00	; 0
	.db #0x00	; 0
	.db #0x00	; 0
	.db #0x00	; 0
	.db #0x00	; 0
	.db #0x00	; 0
	.db #0x00	; 0
	.db #0x00	; 0
	.db #0x00	; 0
	.db #0x00	; 0
	.db #0x00	; 0
	.db #0x00	; 0
	.db #0x00	; 0
	.db #0x00	; 0
	.db #0x00	; 0
	.db #0x00	; 0
	.db #0x00	; 0
	.db #0x00	; 0
	.db #0x00	; 0
	.db #0x00	; 0
	.db #0x00	; 0
	.db #0x00	; 0
	.db #0x00	; 0
	.db #0x00	; 0
	.db #0x00	; 0
	.db #0x00	; 0
	.db #0x00	; 0
	.db #0x00	; 0
	.db #0x00	; 0
	.db #0x00	; 0
	.db #0x00	; 0
	.db #0x00	; 0
	.db #0x00	; 0
	.db #0x00	; 0
	.db #0x00	; 0
	.db #0x00	; 0
	.db #0x00	; 0
	.db #0x00	; 0
	.db #0x00	; 0
	.db #0x00	; 0
	.db #0x00	; 0
	.db #0x00	; 0
	.db #0x00	; 0
	.db #0x00	; 0
	.db #0x00	; 0
	.db #0x00	; 0
	.db #0x00	; 0
	.db #0x00	; 0
	.db #0x00	; 0
	.db #0x00	; 0
	.db #0x00	; 0
	.db #0x00	; 0
	.db #0x00	; 0
	.db #0x00	; 0
	.db #0x00	; 0
	.db #0x00	; 0
	.db #0x00	; 0
	.db #0x00	; 0
	.db #0x00	; 0
	.db #0x00	; 0
	.db #0x00	; 0
	.db #0x00	; 0
	.db #0x00	; 0
	.db #0x00	; 0
	.db #0x00	; 0
	.db #0x00	; 0
	.db #0x00	; 0
	.db #0x00	; 0
	.db #0x00	; 0
	.db #0x00	; 0
	.db #0x00	; 0
	.db #0x00	; 0
	.db #0x00	; 0
	.db #0x00	; 0
	.db #0x00	; 0
	.db #0x00	; 0
	.db #0x00	; 0
	.db #0x00	; 0
	.db #0x00	; 0
	.db #0x00	; 0
	.db #0x00	; 0
	.db #0x00	; 0
	.db #0x00	; 0
	.db #0x00	; 0
	.db #0x00	; 0
	.db #0x00	; 0
	.db #0x00	; 0
	.db #0x00	; 0
	.db #0x00	; 0
	.db #0x00	; 0
	.db #0x00	; 0
	.db #0x00	; 0
	.db #0x00	; 0
	.db #0x00	; 0
	.db #0x00	; 0
	.db #0x00	; 0
	.db #0x00	; 0
	.db #0x00	; 0
	.db #0x00	; 0
	.db #0x00	; 0
	.db #0x00	; 0
	.db #0x00	; 0
	.db #0x00	; 0
	.db #0x00	; 0
	.db #0x00	; 0
	.db #0x00	; 0
	.db #0x00	; 0
	.db #0x00	; 0
	.db #0x00	; 0
	.db #0x00	; 0
	.db #0x00	; 0
	.db #0x00	; 0
	.db #0x00	; 0
	.db #0x00	; 0
	.db #0x00	; 0
	.db #0x00	; 0
	.db #0x00	; 0
	.db #0x00	; 0
	.db #0x00	; 0
	.db #0x00	; 0
	.db #0x00	; 0
	.db #0x00	; 0
	.db #0x00	; 0
	.db #0x00	; 0
	.db #0x00	; 0
	.db #0x00	; 0
	.db #0x00	; 0
	.db #0x00	; 0
	.db #0x00	; 0
	.db #0x00	; 0
	.db #0x00	; 0
	.db #0x00	; 0
	.db #0x00	; 0
	.db #0x00	; 0
	.db #0x00	; 0
	.db #0x00	; 0
	.db #0x00	; 0
	.db #0x00	; 0
	.db #0x00	; 0
	.db #0x00	; 0
	.db #0x00	; 0
	.db #0x00	; 0
	.db #0x00	; 0
	.db #0x00	; 0
	.db #0x00	; 0
	.db #0x00	; 0
	.db #0x00	; 0
	.db #0x00	; 0
	.db #0x00	; 0
	.db #0x00	; 0
	.db #0x00	; 0
	.db #0x00	; 0
	.db #0x00	; 0
	.db #0x00	; 0
	.db #0x00	; 0
	.db #0x00	; 0
	.db #0x00	; 0
	.db #0x00	; 0
	.db #0x00	; 0
	.db #0x00	; 0
	.db #0x00	; 0
	.db #0x00	; 0
	.db #0x00	; 0
	.db #0x00	; 0
	.db #0x00	; 0
	.db #0x00	; 0
	.db #0x00	; 0
	.db #0x00	; 0
	.db #0x00	; 0
	.db #0x00	; 0
	.db #0x00	; 0
	.db #0x00	; 0
	.db #0x00	; 0
	.db #0x00	; 0
	.db #0x00	; 0
	.db #0x00	; 0
	.db #0x00	; 0
	.db #0x00	; 0
	.db #0x00	; 0
	.db #0x00	; 0
	.db #0x00	; 0
	.db #0x00	; 0
	.db #0x00	; 0
	.db #0x00	; 0
	.db #0x00	; 0
	.db #0x00	; 0
	.db #0x00	; 0
	.db #0x00	; 0
	.db #0x00	; 0
	.db #0x00	; 0
	.db #0x00	; 0
	.db #0x00	; 0
	.db #0x00	; 0
	.db #0x00	; 0
	.db #0x00	; 0
	.db #0x00	; 0
	.db #0x00	; 0
	.db #0x00	; 0
	.db #0x00	; 0
	.db #0x00	; 0
	.db #0x00	; 0
	.db #0x00	; 0
	.db #0x00	; 0
	.db #0x00	; 0
	.db #0x00	; 0
	.db #0x00	; 0
	.db #0x00	; 0
	.db #0x00	; 0
	.db #0x00	; 0
	.db #0x00	; 0
	.db #0x00	; 0
	.db #0x00	; 0
	.db #0x00	; 0
	.db #0x00	; 0
	.db #0x00	; 0
	.db #0x00	; 0
	.db #0x00	; 0
	.db #0x00	; 0
	.db #0x00	; 0
	.db #0x00	; 0
	.db #0x00	; 0
	.db #0x00	; 0
	.db #0x00	; 0
	.db #0x00	; 0
	.db #0x00	; 0
	.db #0x00	; 0
	.db #0x00	; 0
	.db #0x00	; 0
	.db #0x00	; 0
	.db #0x00	; 0
	.db #0x00	; 0
	.db #0x00	; 0
	.db #0x00	; 0
	.db #0x00	; 0
	.db #0x00	; 0
	.db #0x00	; 0
	.db #0x00	; 0
	.db #0x00	; 0
	.db #0x00	; 0
	.db #0x00	; 0
	.db #0x00	; 0
	.db #0x00	; 0
	.db #0x00	; 0
	.db #0x00	; 0
	.db #0x00	; 0
	.db #0x00	; 0
	.db #0x00	; 0
	.db #0x00	; 0
	.db #0x00	; 0
	.db #0x00	; 0
	.db #0x00	; 0
	.db #0x00	; 0
	.db #0x00	; 0
	.db #0x00	; 0
	.db #0x00	; 0
	.db #0x00	; 0
	.db #0x00	; 0
	.db #0x00	; 0
	.db #0x00	; 0
	.db #0x00	; 0
	.db #0x00	; 0
	.db #0x00	; 0
	.db #0x00	; 0
	.db #0x00	; 0
	.db #0x00	; 0
	.db #0x00	; 0
	.db #0x00	; 0
	.db #0x00	; 0
	.db #0x00	; 0
	.db #0x00	; 0
	.db #0x00	; 0
	.db #0x00	; 0
	.db #0x00	; 0
	.db #0x00	; 0
	.db #0x00	; 0
	.db #0x00	; 0
	.db #0x00	; 0
	.db #0x00	; 0
	.db #0x00	; 0
	.db #0x00	; 0
	.db #0x00	; 0
	.db #0x00	; 0
	.db #0x00	; 0
	.db #0x00	; 0
	.db #0x00	; 0
	.db #0x00	; 0
	.db #0x00	; 0
	.db #0x00	; 0
	.db #0x00	; 0
	.db #0x00	; 0
	.db #0x00	; 0
	.db #0x00	; 0
	.db #0x00	; 0
	.db #0x00	; 0
	.db #0x00	; 0
	.db #0x00	; 0
	.db #0x00	; 0
	.db #0x00	; 0
	.db #0x00	; 0
	.db #0x00	; 0
	.db #0x00	; 0
	.db #0x00	; 0
	.db #0x00	; 0
	.db #0x00	; 0
	.db #0x00	; 0
	.db #0x00	; 0
	.db #0x00	; 0
	.db #0x00	; 0
	.db #0x00	; 0
	.db #0x00	; 0
	.db #0x00	; 0
	.db #0x00	; 0
	.db #0x00	; 0
	.db #0x00	; 0
	.db #0x00	; 0
	.db #0x00	; 0
	.db #0x00	; 0
	.db #0x00	; 0
	.db #0x00	; 0
	.db #0x00	; 0
	.db #0x00	; 0
	.db #0x00	; 0
	.db #0x00	; 0
	.db #0x00	; 0
	.db #0x00	; 0
	.db #0x00	; 0
	.db #0x00	; 0
	.db #0x00	; 0
	.db #0x00	; 0
	.db #0x00	; 0
	.db #0x00	; 0
	.db #0x00	; 0
	.db #0x00	; 0
	.db #0x00	; 0
	.db #0x00	; 0
	.db #0x00	; 0
	.db #0x00	; 0
	.db #0x00	; 0
	.db #0x00	; 0
	.db #0x00	; 0
	.db #0x00	; 0
	.db #0x00	; 0
	.db #0x00	; 0
	.db #0x00	; 0
	.db #0x00	; 0
	.db #0x00	; 0
	.db #0x00	; 0
	.db #0x00	; 0
	.db #0x00	; 0
	.db #0x00	; 0
	.db #0x00	; 0
	.db #0x00	; 0
	.db #0x00	; 0
	.db #0x00	; 0
	.db #0x00	; 0
	.db #0x00	; 0
	.db #0x00	; 0
	.db #0x00	; 0
	.db #0x00	; 0
	.db #0x00	; 0
	.db #0x00	; 0
	.db #0x00	; 0
	.db #0x00	; 0
	.db #0x00	; 0
	.db #0x00	; 0
	.db #0x00	; 0
	.db #0x00	; 0
	.db #0x00	; 0
	.db #0x00	; 0
	.db #0x00	; 0
	.db #0x00	; 0
	.db #0x00	; 0
	.db #0x00	; 0
	.db #0x00	; 0
	.db #0x00	; 0
	.db #0x00	; 0
	.db #0x00	; 0
	.db #0x00	; 0
	.db #0x00	; 0
	.db #0x00	; 0
	.db #0x00	; 0
	.db #0x00	; 0
	.db #0x00	; 0
	.db #0x00	; 0
	.db #0x00	; 0
	.db #0x00	; 0
	.db #0x00	; 0
	.db #0x00	; 0
	.db #0x00	; 0
	.db #0x00	; 0
	.db #0x00	; 0
	.db #0x00	; 0
	.db #0x00	; 0
	.db #0x00	; 0
	.db #0x00	; 0
	.db #0x00	; 0
	.db #0x00	; 0
	.db #0x00	; 0
	.db #0x00	; 0
	.db #0x00	; 0
	.db #0x00	; 0
	.db #0x00	; 0
	.db #0x00	; 0
	.db #0x00	; 0
	.db #0x00	; 0
	.db #0x00	; 0
	.db #0x00	; 0
	.db #0x00	; 0
	.db #0x00	; 0
	.db #0x00	; 0
	.db #0x00	; 0
	.db #0x00	; 0
	.db #0x00	; 0
	.db #0x00	; 0
	.db #0x00	; 0
	.db #0x00	; 0
	.db #0x00	; 0
	.db #0x00	; 0
	.db #0x00	; 0
	.db #0x00	; 0
	.db #0x00	; 0
	.db #0x00	; 0
	.db #0x00	; 0
	.db #0x00	; 0
	.db #0x00	; 0
	.db #0x00	; 0
	.db #0x00	; 0
	.db #0x00	; 0
	.db #0x00	; 0
	.db #0x00	; 0
	.db #0x00	; 0
	.db #0x00	; 0
	.db #0x00	; 0
	.db #0x00	; 0
	.db #0x00	; 0
	.db #0x00	; 0
	.db #0x00	; 0
	.db #0x00	; 0
	.db #0x00	; 0
	.db #0x00	; 0
	.db #0x00	; 0
	.db #0x00	; 0
	.db #0x00	; 0
	.db #0x00	; 0
	.db #0x00	; 0
	.db #0x00	; 0
	.db #0x00	; 0
	.db #0x00	; 0
	.db #0x00	; 0
	.db #0x00	; 0
	.db #0x00	; 0
	.db #0x00	; 0
	.db #0x00	; 0
	.db #0x00	; 0
	.db #0x00	; 0
	.db #0x00	; 0
	.db #0x00	; 0
	.db #0x00	; 0
	.db #0x00	; 0
	.db #0x00	; 0
	.db #0x00	; 0
	.db #0x00	; 0
	.db #0x00	; 0
	.db #0x00	; 0
	.db #0x00	; 0
	.db #0x00	; 0
	.db #0x00	; 0
	.db #0x00	; 0
	.db #0x00	; 0
	.db #0x00	; 0
	.db #0x00	; 0
	.db #0x00	; 0
	.db #0x00	; 0
	.db #0x00	; 0
	.db #0x00	; 0
	.db #0x00	; 0
	.db #0x00	; 0
	.db #0x00	; 0
	.db #0x00	; 0
	.db #0x00	; 0
	.db #0x00	; 0
	.db #0x00	; 0
	.db #0x00	; 0
	.db #0x00	; 0
	.db #0x00	; 0
	.db #0x00	; 0
	.db #0x00	; 0
	.db #0x00	; 0
	.db #0x00	; 0
	.db #0x00	; 0
	.db #0x00	; 0
	.db #0x00	; 0
	.db #0x00	; 0
	.db #0x00	; 0
	.db #0x00	; 0
	.db #0x00	; 0
	.db #0x00	; 0
	.db #0x00	; 0
	.db #0x00	; 0
	.db #0x00	; 0
	.db #0x00	; 0
	.db #0x00	; 0
	.db #0x00	; 0
	.db #0x00	; 0
	.db #0x00	; 0
	.db #0x00	; 0
	.db #0x00	; 0
	.db #0x00	; 0
	.db #0x00	; 0
	.db #0x00	; 0
	.db #0x00	; 0
	.db #0x00	; 0
	.db #0x00	; 0
	.db #0x00	; 0
	.db #0x00	; 0
	.db #0x00	; 0
	.db #0x00	; 0
	.db #0x00	; 0
	.db #0x00	; 0
	.db #0x00	; 0
	.db #0x00	; 0
	.db #0x00	; 0
	.db #0x00	; 0
	.db #0x00	; 0
	.db #0x00	; 0
	.db #0x00	; 0
	.db #0x00	; 0
	.db #0x00	; 0
	.db #0x00	; 0
	.db #0x00	; 0
	.db #0x00	; 0
	.db #0x00	; 0
	.db #0x00	; 0
	.db #0x00	; 0
	.db #0x00	; 0
	.db #0x00	; 0
	.db #0x00	; 0
	.db #0x00	; 0
	.db #0x00	; 0
	.db #0x00	; 0
	.db #0x00	; 0
	.db #0x00	; 0
	.db #0x00	; 0
	.db #0x00	; 0
	.db #0x00	; 0
	.db #0x00	; 0
	.db #0x00	; 0
	.db #0x00	; 0
	.db #0x00	; 0
	.db #0x00	; 0
	.db #0x00	; 0
	.db #0x00	; 0
	.db #0x00	; 0
	.db #0x00	; 0
	.db #0x00	; 0
	.db #0x00	; 0
	.db #0x00	; 0
	.db #0x00	; 0
	.db #0x00	; 0
	.db #0x00	; 0
	.db #0x00	; 0
	.db #0x00	; 0
	.db #0x00	; 0
	.db #0x00	; 0
	.db #0x00	; 0
	.db #0x00	; 0
	.db #0x00	; 0
	.db #0x00	; 0
	.db #0x00	; 0
	.db #0x00	; 0
	.db #0x00	; 0
	.db #0x00	; 0
	.db #0x00	; 0
	.db #0x00	; 0
	.db #0x00	; 0
	.db #0x00	; 0
	.db #0x00	; 0
	.db #0x00	; 0
	.db #0x00	; 0
	.db #0x00	; 0
	.db #0x00	; 0
	.db #0x00	; 0
	.db #0x00	; 0
	.db #0x00	; 0
	.db #0x00	; 0
	.db #0x00	; 0
	.db #0x00	; 0
	.db #0x00	; 0
	.db #0x00	; 0
	.db #0x00	; 0
	.db #0x00	; 0
	.db #0x00	; 0
	.db #0x00	; 0
	.db #0x00	; 0
	.db #0x00	; 0
	.db #0x00	; 0
	.db #0x00	; 0
	.db #0x00	; 0
	.db #0x00	; 0
	.db #0x00	; 0
	.db #0x00	; 0
	.db #0x00	; 0
	.db #0x00	; 0
	.db #0x00	; 0
	.db #0x00	; 0
	.db #0x00	; 0
	.db #0x00	; 0
	.db #0x00	; 0
	.db #0x00	; 0
	.db #0x00	; 0
	.db #0x00	; 0
	.db #0x00	; 0
	.db #0x00	; 0
	.db #0x00	; 0
	.db #0x00	; 0
	.db #0x00	; 0
	.db #0x00	; 0
	.db #0x00	; 0
	.db #0x00	; 0
	.db #0x00	; 0
	.db #0x00	; 0
	.db #0x00	; 0
	.db #0x00	; 0
	.db #0x00	; 0
	.db #0x00	; 0
	.db #0x00	; 0
	.db #0x00	; 0
	.db #0x00	; 0
	.db #0x00	; 0
	.db #0x00	; 0
	.db #0x00	; 0
	.db #0x00	; 0
	.db #0x00	; 0
	.db #0x00	; 0
	.db #0x00	; 0
	.db #0x00	; 0
	.db #0x00	; 0
	.db #0x00	; 0
	.db #0x00	; 0
	.db #0x00	; 0
	.db #0x00	; 0
	.db #0x00	; 0
	.db #0x00	; 0
	.db #0x00	; 0
	.db #0x00	; 0
	.db #0x00	; 0
	.db #0x00	; 0
	.db #0x00	; 0
	.db #0x00	; 0
	.db #0x00	; 0
	.db #0x00	; 0
	.db #0x00	; 0
	.db #0x00	; 0
	.db #0x00	; 0
	.db #0x00	; 0
	.db #0x00	; 0
	.db #0x00	; 0
	.db #0x00	; 0
	.db #0x00	; 0
	.db #0x00	; 0
	.db #0x00	; 0
	.db #0x00	; 0
	.db #0x00	; 0
	.db #0x00	; 0
	.db #0x00	; 0
	.db #0x00	; 0
	.db #0x00	; 0
	.db #0x00	; 0
	.db #0x00	; 0
	.db #0x00	; 0
	.db #0x00	; 0
	.db #0x00	; 0
	.db #0x00	; 0
	.db #0x00	; 0
	.db #0x00	; 0
	.db #0x00	; 0
	.db #0x00	; 0
	.db #0x00	; 0
	.db #0x00	; 0
	.db #0x00	; 0
	.db #0x00	; 0
	.db #0x00	; 0
	.db #0x00	; 0
	.db #0x00	; 0
	.db #0x00	; 0
	.db #0x00	; 0
	.db #0x00	; 0
	.db #0x00	; 0
	.db #0x00	; 0
	.db #0x00	; 0
	.db #0x00	; 0
	.db #0x00	; 0
	.db #0x00	; 0
	.db #0x00	; 0
	.db #0x00	; 0
	.db #0x00	; 0
	.db #0x00	; 0
	.db #0x00	; 0
	.db #0x00	; 0
	.db #0x00	; 0
	.db #0x00	; 0
	.db #0x00	; 0
	.db #0x00	; 0
	.db #0x00	; 0
	.db #0x00	; 0
	.db #0x00	; 0
	.db #0x00	; 0
	.db #0x00	; 0
	.db #0x00	; 0
	.db #0x00	; 0
	.db #0x00	; 0
	.db #0x00	; 0
	.db #0x00	; 0
	.db #0x00	; 0
	.db #0x00	; 0
	.db #0x00	; 0
	.db #0x00	; 0
	.db #0x00	; 0
	.db #0x00	; 0
	.db #0x00	; 0
	.db #0x00	; 0
	.db #0x00	; 0
	.db #0x00	; 0
	.db #0x00	; 0
	.db #0x00	; 0
	.db #0x00	; 0
	.db #0x00	; 0
	.db #0x00	; 0
	.db #0x00	; 0
	.db #0x00	; 0
	.db #0x00	; 0
	.db #0x00	; 0
	.db #0x00	; 0
	.db #0x00	; 0
	.db #0x00	; 0
	.db #0x00	; 0
	.db #0x00	; 0
	.db #0x00	; 0
	.db #0x00	; 0
	.db #0x00	; 0
	.db #0x00	; 0
	.db #0x00	; 0
	.db #0x00	; 0
	.db #0x00	; 0
	.db #0x00	; 0
	.db #0x00	; 0
	.db #0x00	; 0
	.db #0x00	; 0
	.db #0x00	; 0
	.db #0x00	; 0
	.db #0x00	; 0
	.db #0x00	; 0
	.db #0x00	; 0
	.db #0x00	; 0
	.db #0x00	; 0
	.db #0x00	; 0
	.db #0x00	; 0
	.db #0x00	; 0
	.db #0x00	; 0
	.db #0x00	; 0
	.db #0x00	; 0
	.db #0x00	; 0
	.db #0x00	; 0
	.db #0x00	; 0
	.db #0x00	; 0
	.db #0x00	; 0
	.db #0x00	; 0
	.db #0x00	; 0
	.db #0x00	; 0
	.db #0x00	; 0
	.db #0x00	; 0
	.db #0x00	; 0
	.db #0x00	; 0
	.db #0x00	; 0
	.db #0x00	; 0
	.db #0x00	; 0
	.db #0x00	; 0
	.db #0x00	; 0
	.db #0x00	; 0
	.db #0x00	; 0
	.db #0x00	; 0
	.db #0x00	; 0
	.db #0x00	; 0
	.db #0x00	; 0
	.db #0x00	; 0
	.db #0x00	; 0
	.db #0x00	; 0
	.db #0x00	; 0
	.db #0x00	; 0
	.db #0x00	; 0
	.db #0x00	; 0
	.db #0x00	; 0
	.db #0x00	; 0
	.db #0x00	; 0
	.db #0x00	; 0
	.db #0x00	; 0
	.db #0x00	; 0
	.db #0x00	; 0
	.db #0x00	; 0
	.db #0x00	; 0
	.db #0x00	; 0
	.db #0x00	; 0
	.db #0x00	; 0
	.db #0x00	; 0
	.db #0x00	; 0
	.db #0x00	; 0
	.db #0x00	; 0
	.db #0x00	; 0
	.db #0x00	; 0
	.db #0x00	; 0
	.db #0x00	; 0
	.db #0x00	; 0
	.db #0x00	; 0
	.db #0x00	; 0
	.db #0x00	; 0
	.db #0x00	; 0
	.db #0x00	; 0
	.db #0x00	; 0
	.db #0x00	; 0
	.db #0x00	; 0
	.db #0x00	; 0
	.db #0x00	; 0
	.db #0x00	; 0
	.db #0x00	; 0
	.db #0x00	; 0
	.db #0x00	; 0
	.db #0x00	; 0
	.db #0x00	; 0
	.db #0x00	; 0
	.db #0x00	; 0
	.db #0x00	; 0
	.db #0x00	; 0
	.db #0x00	; 0
	.db #0x00	; 0
	.db #0x00	; 0
	.db #0x00	; 0
	.db #0x00	; 0
	.db #0x00	; 0
	.db #0x00	; 0
	.db #0x00	; 0
	.db #0x00	; 0
	.db #0x00	; 0
	.db #0x00	; 0
	.db #0x00	; 0
	.db #0x00	; 0
	.db #0x00	; 0
	.db #0x00	; 0
	.db #0x00	; 0
	.db #0x00	; 0
	.db #0x00	; 0
	.db #0x00	; 0
	.db #0x00	; 0
	.db #0x00	; 0
	.db #0x00	; 0
	.db #0x00	; 0
	.db #0x00	; 0
	.db #0x00	; 0
	.db #0x00	; 0
	.db #0x00	; 0
	.db #0x00	; 0
	.db #0x00	; 0
	.db #0x00	; 0
	.db #0x00	; 0
	.db #0x00	; 0
	.db #0x00	; 0
	.db #0x00	; 0
	.db #0x00	; 0
	.db #0x00	; 0
	.db #0x00	; 0
	.db #0x00	; 0
	.db #0x00	; 0
	.db #0x00	; 0
	.db #0x00	; 0
	.db #0x00	; 0
	.db #0x00	; 0
	.db #0x00	; 0
	.db #0x00	; 0
	.db #0x00	; 0
	.db #0x00	; 0
	.db #0x00	; 0
	.db #0x00	; 0
	.db #0x00	; 0
	.db #0x00	; 0
	.db #0x00	; 0
	.db #0x00	; 0
	.db #0x00	; 0
	.db #0x00	; 0
	.db #0x00	; 0
	.db #0x00	; 0
	.db #0x00	; 0
	.db #0x00	; 0
	.db #0x00	; 0
	.db #0x00	; 0
	.db #0x00	; 0
	.db #0x00	; 0
	.db #0x00	; 0
	.db #0x00	; 0
	.db #0x00	; 0
	.db #0x00	; 0
	.db #0x00	; 0
	.db #0x00	; 0
	.db #0x00	; 0
	.db #0x00	; 0
	.db #0x00	; 0
	.db #0x00	; 0
	.db #0x00	; 0
	.db #0x00	; 0
	.db #0x00	; 0
	.db #0x00	; 0
	.db #0x00	; 0
	.db #0x00	; 0
	.db #0x00	; 0
	.db #0x00	; 0
	.db #0x00	; 0
	.db #0x00	; 0
	.db #0x00	; 0
	.db #0x00	; 0
	.db #0x00	; 0
	.db #0x00	; 0
	.db #0x00	; 0
	.db #0x00	; 0
	.db #0x00	; 0
	.db #0x00	; 0
	.db #0x00	; 0
	.db #0x00	; 0
	.db #0x00	; 0
	.db #0x00	; 0
	.db #0x00	; 0
	.db #0x00	; 0
	.db #0x00	; 0
	.db #0x00	; 0
	.db #0x00	; 0
	.db #0x00	; 0
	.db #0x00	; 0
	.db #0x00	; 0
	.db #0x00	; 0
	.db #0x00	; 0
	.db #0x00	; 0
	.db #0x00	; 0
	.db #0x00	; 0
	.db #0x00	; 0
	.db #0x00	; 0
	.db #0x00	; 0
	.db #0x00	; 0
	.db #0x00	; 0
	.db #0x00	; 0
	.db #0x00	; 0
	.db #0x00	; 0
	.db #0x00	; 0
	.db #0x00	; 0
	.db #0x00	; 0
	.db #0x00	; 0
	.db #0x00	; 0
	.db #0x00	; 0
	.db #0x00	; 0
	.db #0x00	; 0
	.db #0x00	; 0
	.db #0x00	; 0
	.db #0x00	; 0
	.db #0x00	; 0
	.db #0x00	; 0
	.db #0x00	; 0
	.db #0x00	; 0
	.db #0x00	; 0
	.db #0x00	; 0
	.db #0x00	; 0
	.db #0x00	; 0
	.db #0x00	; 0
	.db #0x00	; 0
_Map_ClearPLN1:
	.db #0x00	; 0
	.db #0x00	; 0
	.db #0x00	; 0
	.db #0x00	; 0
	.db #0x00	; 0
	.db #0x00	; 0
	.db #0x00	; 0
	.db #0x00	; 0
	.db #0x00	; 0
	.db #0x00	; 0
	.db #0x00	; 0
	.db #0x00	; 0
	.db #0x00	; 0
	.db #0x00	; 0
	.db #0x00	; 0
	.db #0x00	; 0
	.db #0x00	; 0
	.db #0x00	; 0
	.db #0x00	; 0
	.db #0x00	; 0
	.db #0x00	; 0
	.db #0x00	; 0
	.db #0x00	; 0
	.db #0x00	; 0
	.db #0x00	; 0
	.db #0x00	; 0
	.db #0x00	; 0
	.db #0x00	; 0
	.db #0x00	; 0
	.db #0x00	; 0
	.db #0x00	; 0
	.db #0x00	; 0
	.db #0x00	; 0
	.db #0x00	; 0
	.db #0x00	; 0
	.db #0x00	; 0
	.db #0x00	; 0
	.db #0x00	; 0
	.db #0x00	; 0
	.db #0x00	; 0
	.db #0x00	; 0
	.db #0x00	; 0
	.db #0x00	; 0
	.db #0x00	; 0
	.db #0x00	; 0
	.db #0x00	; 0
	.db #0x00	; 0
	.db #0x00	; 0
	.db #0x00	; 0
	.db #0x00	; 0
	.db #0x00	; 0
	.db #0x00	; 0
	.db #0x00	; 0
	.db #0x00	; 0
	.db #0x00	; 0
	.db #0x00	; 0
	.db #0x00	; 0
	.db #0x00	; 0
	.db #0x00	; 0
	.db #0x00	; 0
	.db #0x00	; 0
	.db #0x00	; 0
	.db #0x00	; 0
	.db #0x00	; 0
	.db #0x00	; 0
	.db #0x00	; 0
	.db #0x00	; 0
	.db #0x00	; 0
	.db #0x00	; 0
	.db #0x00	; 0
	.db #0x00	; 0
	.db #0x00	; 0
	.db #0x00	; 0
	.db #0x00	; 0
	.db #0x00	; 0
	.db #0x00	; 0
	.db #0x00	; 0
	.db #0x00	; 0
	.db #0x00	; 0
	.db #0x00	; 0
	.db #0x00	; 0
	.db #0x00	; 0
	.db #0x00	; 0
	.db #0x00	; 0
	.db #0x00	; 0
	.db #0x00	; 0
	.db #0x00	; 0
	.db #0x00	; 0
	.db #0x00	; 0
	.db #0x00	; 0
	.db #0x00	; 0
	.db #0x00	; 0
	.db #0x00	; 0
	.db #0x00	; 0
	.db #0x00	; 0
	.db #0x00	; 0
	.db #0x00	; 0
	.db #0x00	; 0
	.db #0x00	; 0
	.db #0x00	; 0
	.db #0x00	; 0
	.db #0x00	; 0
	.db #0x00	; 0
	.db #0x00	; 0
	.db #0x00	; 0
	.db #0x00	; 0
	.db #0x00	; 0
	.db #0x00	; 0
	.db #0x00	; 0
	.db #0x00	; 0
	.db #0x00	; 0
	.db #0x00	; 0
	.db #0x00	; 0
	.db #0x00	; 0
	.db #0x00	; 0
	.db #0x00	; 0
	.db #0x00	; 0
	.db #0x00	; 0
	.db #0x00	; 0
	.db #0x00	; 0
	.db #0x00	; 0
	.db #0x00	; 0
	.db #0x00	; 0
	.db #0x00	; 0
	.db #0x00	; 0
	.db #0x00	; 0
	.db #0x00	; 0
	.db #0x00	; 0
	.db #0x00	; 0
	.db #0x00	; 0
	.db #0x00	; 0
	.db #0x00	; 0
	.db #0x00	; 0
	.db #0x00	; 0
	.db #0x00	; 0
	.db #0x00	; 0
	.db #0x00	; 0
	.db #0x00	; 0
	.db #0x00	; 0
	.db #0x00	; 0
	.db #0x00	; 0
	.db #0x00	; 0
	.db #0x00	; 0
	.db #0x00	; 0
	.db #0x00	; 0
	.db #0x00	; 0
	.db #0x00	; 0
	.db #0x00	; 0
	.db #0x00	; 0
	.db #0x00	; 0
	.db #0x00	; 0
	.db #0x00	; 0
	.db #0x00	; 0
	.db #0x00	; 0
	.db #0x00	; 0
	.db #0x00	; 0
	.db #0x00	; 0
	.db #0x00	; 0
	.db #0x00	; 0
	.db #0x00	; 0
	.db #0x00	; 0
	.db #0x00	; 0
	.db #0x00	; 0
	.db #0x00	; 0
	.db #0x00	; 0
	.db #0x00	; 0
	.db #0x00	; 0
	.db #0x00	; 0
	.db #0x00	; 0
	.db #0x00	; 0
	.db #0x00	; 0
	.db #0x00	; 0
	.db #0x00	; 0
	.db #0x00	; 0
	.db #0x00	; 0
	.db #0x00	; 0
	.db #0x00	; 0
	.db #0x00	; 0
	.db #0x00	; 0
	.db #0x00	; 0
	.db #0x00	; 0
	.db #0x00	; 0
	.db #0x00	; 0
	.db #0x00	; 0
	.db #0x00	; 0
	.db #0x00	; 0
	.db #0x00	; 0
	.db #0x00	; 0
	.db #0x00	; 0
	.db #0x00	; 0
	.db #0x00	; 0
	.db #0x00	; 0
	.db #0x00	; 0
	.db #0x00	; 0
	.db #0x00	; 0
	.db #0x00	; 0
	.db #0x00	; 0
	.db #0x00	; 0
	.db #0x00	; 0
	.db #0x00	; 0
	.db #0x00	; 0
	.db #0x00	; 0
	.db #0x00	; 0
	.db #0x00	; 0
	.db #0x00	; 0
	.db #0x00	; 0
	.db #0x00	; 0
	.db #0x00	; 0
	.db #0x00	; 0
	.db #0x00	; 0
	.db #0x00	; 0
	.db #0x00	; 0
	.db #0x00	; 0
	.db #0x00	; 0
	.db #0x00	; 0
	.db #0x00	; 0
	.db #0x00	; 0
	.db #0x00	; 0
	.db #0x00	; 0
	.db #0x00	; 0
	.db #0x00	; 0
	.db #0x00	; 0
	.db #0x00	; 0
	.db #0x00	; 0
	.db #0x00	; 0
	.db #0x00	; 0
	.db #0x00	; 0
	.db #0x00	; 0
	.db #0x00	; 0
	.db #0x00	; 0
	.db #0x00	; 0
	.db #0x00	; 0
	.db #0x00	; 0
	.db #0x00	; 0
	.db #0x00	; 0
	.db #0x00	; 0
	.db #0x00	; 0
	.db #0x00	; 0
	.db #0x00	; 0
	.db #0x00	; 0
	.db #0x00	; 0
	.db #0x00	; 0
	.db #0x00	; 0
	.db #0x00	; 0
	.db #0x00	; 0
	.db #0x00	; 0
	.db #0x00	; 0
	.db #0x00	; 0
	.db #0x00	; 0
	.db #0x00	; 0
	.db #0x00	; 0
	.db #0x00	; 0
	.db #0x00	; 0
	.db #0x00	; 0
	.db #0x00	; 0
	.db #0x00	; 0
	.db #0x00	; 0
	.db #0x00	; 0
	.db #0x00	; 0
	.db #0x00	; 0
	.db #0x00	; 0
	.db #0x00	; 0
	.db #0x00	; 0
	.db #0x00	; 0
	.db #0x00	; 0
	.db #0x00	; 0
	.db #0x00	; 0
	.db #0x00	; 0
	.db #0x00	; 0
	.db #0x00	; 0
	.db #0x00	; 0
	.db #0x00	; 0
	.db #0x00	; 0
	.db #0x00	; 0
	.db #0x00	; 0
	.db #0x00	; 0
	.db #0x00	; 0
	.db #0x00	; 0
	.db #0x00	; 0
	.db #0x00	; 0
	.db #0x00	; 0
	.db #0x00	; 0
	.db #0x00	; 0
	.db #0x00	; 0
	.db #0x00	; 0
	.db #0x00	; 0
	.db #0x00	; 0
	.db #0x00	; 0
	.db #0x00	; 0
	.db #0x00	; 0
	.db #0x00	; 0
	.db #0x00	; 0
	.db #0x00	; 0
	.db #0x00	; 0
	.db #0x00	; 0
	.db #0x00	; 0
	.db #0x00	; 0
	.db #0x00	; 0
	.db #0x00	; 0
	.db #0x00	; 0
	.db #0x00	; 0
	.db #0x00	; 0
	.db #0x00	; 0
	.db #0x00	; 0
	.db #0x00	; 0
	.db #0x00	; 0
	.db #0x00	; 0
	.db #0x00	; 0
	.db #0x00	; 0
	.db #0x00	; 0
	.db #0x00	; 0
	.db #0x00	; 0
	.db #0x00	; 0
	.db #0x00	; 0
	.db #0x00	; 0
	.db #0x00	; 0
	.db #0x00	; 0
	.db #0x00	; 0
	.db #0x00	; 0
	.db #0x00	; 0
	.db #0x00	; 0
	.db #0x00	; 0
	.db #0x00	; 0
	.db #0x00	; 0
	.db #0x00	; 0
	.db #0x00	; 0
	.db #0x00	; 0
	.db #0x00	; 0
	.db #0x00	; 0
	.db #0x00	; 0
	.db #0x00	; 0
	.db #0x00	; 0
	.db #0x00	; 0
	.db #0x00	; 0
	.db #0x00	; 0
	.db #0x00	; 0
	.db #0x00	; 0
	.db #0x00	; 0
	.db #0x00	; 0
	.db #0x00	; 0
	.db #0x00	; 0
	.db #0x00	; 0
	.db #0x00	; 0
	.db #0x00	; 0
	.db #0x00	; 0
	.db #0x00	; 0
	.db #0x00	; 0
	.db #0x00	; 0
	.db #0x00	; 0
	.db #0x00	; 0
	.db #0x00	; 0
	.db #0x00	; 0
	.db #0x00	; 0
	.db #0x00	; 0
	.db #0x00	; 0
	.db #0x00	; 0
	.db #0x00	; 0
	.db #0x00	; 0
	.db #0x00	; 0
	.db #0x00	; 0
	.db #0x00	; 0
	.db #0x00	; 0
	.db #0x00	; 0
	.db #0x00	; 0
	.db #0x00	; 0
	.db #0x00	; 0
	.db #0x00	; 0
	.db #0x00	; 0
	.db #0x00	; 0
	.db #0x00	; 0
	.db #0x00	; 0
	.db #0x00	; 0
	.db #0x00	; 0
	.db #0x00	; 0
	.db #0x00	; 0
	.db #0x00	; 0
	.db #0x00	; 0
	.db #0x00	; 0
	.db #0x00	; 0
	.db #0x00	; 0
	.db #0x00	; 0
	.db #0x00	; 0
	.db #0x00	; 0
	.db #0x00	; 0
	.db #0x00	; 0
	.db #0x00	; 0
	.db #0x00	; 0
	.db #0x00	; 0
	.db #0x00	; 0
	.db #0x00	; 0
	.db #0x00	; 0
	.db #0x00	; 0
	.db #0x00	; 0
	.db #0x00	; 0
	.db #0x00	; 0
	.db #0x00	; 0
	.db #0x00	; 0
	.db #0x00	; 0
	.db #0x00	; 0
	.db #0x00	; 0
	.db #0x00	; 0
	.db #0x00	; 0
	.db #0x00	; 0
	.db #0x00	; 0
	.db #0x00	; 0
	.db #0x00	; 0
	.db #0x00	; 0
	.db #0x00	; 0
	.db #0x00	; 0
	.db #0x00	; 0
	.db #0x00	; 0
	.db #0x00	; 0
	.db #0x00	; 0
	.db #0x00	; 0
	.db #0x00	; 0
	.db #0x00	; 0
	.db #0x00	; 0
	.db #0x00	; 0
	.db #0x00	; 0
	.db #0x00	; 0
	.db #0x00	; 0
	.db #0x00	; 0
	.db #0x00	; 0
	.db #0x00	; 0
	.db #0x00	; 0
	.db #0x00	; 0
	.db #0x00	; 0
	.db #0x00	; 0
	.db #0x00	; 0
	.db #0x00	; 0
	.db #0x00	; 0
	.db #0x00	; 0
	.db #0x00	; 0
	.db #0x00	; 0
	.db #0x00	; 0
	.db #0x00	; 0
	.db #0x00	; 0
	.db #0x00	; 0
	.db #0x00	; 0
	.db #0x00	; 0
	.db #0x00	; 0
	.db #0x00	; 0
	.db #0x00	; 0
	.db #0x00	; 0
	.db #0x00	; 0
	.db #0x00	; 0
	.db #0x00	; 0
	.db #0x00	; 0
	.db #0x00	; 0
	.db #0x00	; 0
	.db #0x00	; 0
	.db #0x00	; 0
	.db #0x00	; 0
	.db #0x00	; 0
	.db #0x00	; 0
	.db #0x00	; 0
	.db #0x00	; 0
	.db #0x00	; 0
	.db #0x00	; 0
	.db #0x00	; 0
	.db #0x00	; 0
	.db #0x00	; 0
	.db #0x00	; 0
	.db #0x00	; 0
	.db #0x00	; 0
	.db #0x00	; 0
	.db #0x00	; 0
	.db #0x00	; 0
	.db #0x00	; 0
	.db #0x00	; 0
	.db #0x00	; 0
	.db #0x00	; 0
	.db #0x00	; 0
	.db #0x00	; 0
	.db #0x00	; 0
	.db #0x00	; 0
	.db #0x00	; 0
	.db #0x00	; 0
	.db #0x00	; 0
	.db #0x00	; 0
	.db #0x00	; 0
	.db #0x00	; 0
	.db #0x00	; 0
	.db #0x00	; 0
	.db #0x00	; 0
	.db #0x00	; 0
	.db #0x00	; 0
	.db #0x00	; 0
	.db #0x00	; 0
	.db #0x00	; 0
	.db #0x00	; 0
	.db #0x00	; 0
	.db #0x00	; 0
	.db #0x00	; 0
	.db #0x00	; 0
	.db #0x00	; 0
	.db #0x00	; 0
	.db #0x00	; 0
	.db #0x00	; 0
	.db #0x00	; 0
	.db #0x00	; 0
	.db #0x00	; 0
	.db #0x00	; 0
	.db #0x00	; 0
	.db #0x00	; 0
	.db #0x00	; 0
	.db #0x00	; 0
	.db #0x00	; 0
	.db #0x00	; 0
	.db #0x00	; 0
	.db #0x00	; 0
	.db #0x00	; 0
	.db #0x00	; 0
	.db #0x00	; 0
	.db #0x00	; 0
	.db #0x00	; 0
	.db #0x00	; 0
	.db #0x00	; 0
	.db #0x00	; 0
	.db #0x00	; 0
	.db #0x00	; 0
	.db #0x00	; 0
	.db #0x00	; 0
	.db #0x00	; 0
	.db #0x00	; 0
	.db #0x00	; 0
	.db #0x00	; 0
	.db #0x00	; 0
	.db #0x00	; 0
	.db #0x00	; 0
	.db #0x00	; 0
	.db #0x00	; 0
	.db #0x00	; 0
	.db #0x00	; 0
	.db #0x00	; 0
	.db #0x00	; 0
	.db #0x00	; 0
	.db #0x00	; 0
	.db #0x00	; 0
	.db #0x00	; 0
	.db #0x00	; 0
	.db #0x00	; 0
	.db #0x00	; 0
	.db #0x00	; 0
	.db #0x00	; 0
	.db #0x00	; 0
	.db #0x00	; 0
	.db #0x00	; 0
	.db #0x00	; 0
	.db #0x00	; 0
	.db #0x00	; 0
	.db #0x00	; 0
	.db #0x00	; 0
	.db #0x00	; 0
	.db #0x00	; 0
	.db #0x00	; 0
	.db #0x00	; 0
	.db #0x00	; 0
	.db #0x00	; 0
	.db #0x00	; 0
	.db #0x00	; 0
	.db #0x00	; 0
	.db #0x00	; 0
	.db #0x00	; 0
	.db #0x00	; 0
	.db #0x00	; 0
	.db #0x00	; 0
	.db #0x00	; 0
	.db #0x00	; 0
	.db #0x00	; 0
	.db #0x00	; 0
	.db #0x00	; 0
	.db #0x00	; 0
	.db #0x00	; 0
	.db #0x00	; 0
	.db #0x00	; 0
	.db #0x00	; 0
	.db #0x00	; 0
	.db #0x00	; 0
	.db #0x00	; 0
	.db #0x00	; 0
	.db #0x00	; 0
	.db #0x00	; 0
	.db #0x00	; 0
	.db #0x00	; 0
	.db #0x00	; 0
	.db #0x00	; 0
	.db #0x00	; 0
	.db #0x00	; 0
	.db #0x00	; 0
	.db #0x00	; 0
	.db #0x00	; 0
	.db #0x00	; 0
	.db #0x00	; 0
	.db #0x00	; 0
	.db #0x00	; 0
	.db #0x00	; 0
	.db #0x00	; 0
	.db #0x00	; 0
	.db #0x00	; 0
	.db #0x00	; 0
	.db #0x00	; 0
	.db #0x00	; 0
	.db #0x00	; 0
	.db #0x00	; 0
	.db #0x00	; 0
	.db #0x00	; 0
	.db #0x00	; 0
	.db #0x00	; 0
	.db #0x00	; 0
	.db #0x00	; 0
	.db #0x00	; 0
	.db #0x00	; 0
	.db #0x00	; 0
	.db #0x00	; 0
	.db #0x00	; 0
	.db #0x00	; 0
	.db #0x00	; 0
	.db #0x00	; 0
	.db #0x00	; 0
	.db #0x00	; 0
	.db #0x00	; 0
	.db #0x00	; 0
	.db #0x00	; 0
	.db #0x00	; 0
	.db #0x00	; 0
	.db #0x00	; 0
	.db #0x00	; 0
	.db #0x00	; 0
	.db #0x00	; 0
	.db #0x00	; 0
	.db #0x00	; 0
	.db #0x00	; 0
	.db #0x00	; 0
	.db #0x00	; 0
	.db #0x00	; 0
	.db #0x00	; 0
	.db #0x00	; 0
	.db #0x00	; 0
	.db #0x00	; 0
	.db #0x00	; 0
	.db #0x00	; 0
	.db #0x00	; 0
	.db #0x00	; 0
	.db #0x00	; 0
	.db #0x00	; 0
	.db #0x00	; 0
	.db #0x00	; 0
	.db #0x00	; 0
	.db #0x00	; 0
	.db #0x00	; 0
	.db #0x00	; 0
	.db #0x00	; 0
	.db #0x00	; 0
	.db #0x00	; 0
	.db #0x00	; 0
	.db #0x00	; 0
	.db #0x00	; 0
	.db #0x00	; 0
	.db #0x00	; 0
	.db #0x00	; 0
	.db #0x00	; 0
	.db #0x00	; 0
	.db #0x00	; 0
	.db #0x00	; 0
	.db #0x00	; 0
	.db #0x00	; 0
	.db #0x00	; 0
	.db #0x00	; 0
	.db #0x00	; 0
	.db #0x00	; 0
	.db #0x00	; 0
	.db #0x00	; 0
	.db #0x00	; 0
	.db #0x00	; 0
	.db #0x00	; 0
	.db #0x00	; 0
	.db #0x00	; 0
	.db #0x00	; 0
	.db #0x00	; 0
	.db #0x00	; 0
	.db #0x00	; 0
	.db #0x00	; 0
	.db #0x00	; 0
	.db #0x00	; 0
	.db #0x00	; 0
	.db #0x00	; 0
	.db #0x00	; 0
	.db #0x00	; 0
	.db #0x00	; 0
	.db #0x00	; 0
	.db #0x00	; 0
	.db #0x00	; 0
	.db #0x00	; 0
	.db #0x00	; 0
	.db #0x00	; 0
	.db #0x00	; 0
	.db #0x00	; 0
	.db #0x00	; 0
	.db #0x00	; 0
	.db #0x00	; 0
	.db #0x00	; 0
	.db #0x00	; 0
	.db #0x00	; 0
	.db #0x00	; 0
	.db #0x00	; 0
	.db #0x00	; 0
	.db #0x00	; 0
	.db #0x00	; 0
	.db #0x00	; 0
	.db #0x00	; 0
	.db #0x00	; 0
	.db #0x00	; 0
	.db #0x00	; 0
	.db #0x00	; 0
	.db #0x00	; 0
	.db #0x00	; 0
	.db #0x00	; 0
	.db #0x00	; 0
	.db #0x00	; 0
	.db #0x00	; 0
	.db #0x00	; 0
	.db #0x00	; 0
	.db #0x00	; 0
	.db #0x00	; 0
	.db #0x00	; 0
	.db #0x00	; 0
	.db #0x00	; 0
	.db #0x00	; 0
	.db #0x00	; 0
	.db #0x00	; 0
	.db #0x00	; 0
	.db #0x00	; 0
	.db #0x00	; 0
	.db #0x00	; 0
	.db #0x00	; 0
	.db #0x00	; 0
	.db #0x00	; 0
	.db #0x00	; 0
	.db #0x00	; 0
	.db #0x00	; 0
	.db #0x00	; 0
	.db #0x00	; 0
	.db #0x00	; 0
	.db #0x00	; 0
	.db #0x00	; 0
	.db #0x00	; 0
	.db #0x00	; 0
	.db #0x00	; 0
	.db #0x00	; 0
	.db #0x00	; 0
	.db #0x00	; 0
	.db #0x00	; 0
	.db #0x00	; 0
	.db #0x00	; 0
	.db #0x00	; 0
	.db #0x00	; 0
	.db #0x00	; 0
	.db #0x00	; 0
	.db #0x00	; 0
	.db #0x00	; 0
	.db #0x00	; 0
	.db #0x00	; 0
	.db #0x00	; 0
	.db #0x00	; 0
	.db #0x00	; 0
	.db #0x00	; 0
	.db #0x00	; 0
	.db #0x00	; 0
	.db #0x00	; 0
	.db #0x00	; 0
	.db #0x00	; 0
	.db #0x00	; 0
	.db #0x00	; 0
	.db #0x00	; 0
	.db #0x00	; 0
	.db #0x00	; 0
	.db #0x00	; 0
	.db #0x00	; 0
	.db #0x00	; 0
	.db #0x00	; 0
	.db #0x00	; 0
	.db #0x00	; 0
	.db #0x00	; 0
	.db #0x00	; 0
	.db #0x00	; 0
	.db #0x00	; 0
	.db #0x00	; 0
	.db #0x00	; 0
	.db #0x00	; 0
	.db #0x00	; 0
	.db #0x00	; 0
	.db #0x00	; 0
	.db #0x00	; 0
	.db #0x00	; 0
	.db #0x00	; 0
	.db #0x00	; 0
	.db #0x00	; 0
	.db #0x00	; 0
	.db #0x00	; 0
	.db #0x00	; 0
	.db #0x00	; 0
	.db #0x00	; 0
	.db #0x00	; 0
	.db #0x00	; 0
	.db #0x00	; 0
	.db #0x00	; 0
	.db #0x00	; 0
	.db #0x00	; 0
	.db #0x00	; 0
	.db #0x00	; 0
	.db #0x00	; 0
	.db #0x00	; 0
	.db #0x00	; 0
	.db #0x00	; 0
	.db #0x00	; 0
	.db #0x00	; 0
	.db #0x00	; 0
	.db #0x00	; 0
	.db #0x00	; 0
	.db #0x00	; 0
	.db #0x00	; 0
	.db #0x00	; 0
	.db #0x00	; 0
	.db #0x00	; 0
	.db #0x00	; 0
	.db #0x00	; 0
	.db #0x00	; 0
	.db #0x00	; 0
	.db #0x00	; 0
	.db #0x00	; 0
	.db #0x00	; 0
	.db #0x00	; 0
	.db #0x00	; 0
	.db #0x00	; 0
	.db #0x00	; 0
	.db #0x00	; 0
	.db #0x00	; 0
	.db #0x00	; 0
	.db #0x00	; 0
	.db #0x00	; 0
	.db #0x00	; 0
	.db #0x00	; 0
	.db #0x00	; 0
	.db #0x00	; 0
	.db #0x00	; 0
	.db #0x00	; 0
	.db #0x00	; 0
	.db #0x00	; 0
	.db #0x00	; 0
	.db #0x00	; 0
	.db #0x00	; 0
	.db #0x00	; 0
	.db #0x00	; 0
	.db #0x00	; 0
	.db #0x00	; 0
	.db #0x00	; 0
	.db #0x00	; 0
	.db #0x00	; 0
	.db #0x00	; 0
	.db #0x00	; 0
	.db #0x00	; 0
	.db #0x00	; 0
	.db #0x00	; 0
	.db #0x00	; 0
	.db #0x00	; 0
	.db #0x00	; 0
	.db #0x00	; 0
	.db #0x00	; 0
	.db #0x00	; 0
	.db #0x00	; 0
	.db #0x00	; 0
	.db #0x00	; 0
	.db #0x00	; 0
	.db #0x00	; 0
	.db #0x00	; 0
	.db #0x00	; 0
	.db #0x00	; 0
	.db #0x00	; 0
	.db #0x00	; 0
	.db #0x00	; 0
	.db #0x00	; 0
	.db #0x00	; 0
	.db #0x00	; 0
	.db #0x00	; 0
	.db #0x00	; 0
	.db #0x00	; 0
	.db #0x00	; 0
	.db #0x00	; 0
	.db #0x00	; 0
	.db #0x00	; 0
	.db #0x00	; 0
	.db #0x00	; 0
	.db #0x00	; 0
	.db #0x00	; 0
	.db #0x00	; 0
	.db #0x00	; 0
	.db #0x00	; 0
	.db #0x00	; 0
	.db #0x00	; 0
	.db #0x00	; 0
	.db #0x00	; 0
	.db #0x00	; 0
	.db #0x00	; 0
	.db #0x00	; 0
	.db #0x00	; 0
	.db #0x00	; 0
	.db #0x00	; 0
	.db #0x00	; 0
	.db #0x00	; 0
	.db #0x00	; 0
	.db #0x00	; 0
	.db #0x00	; 0
	.db #0x00	; 0
	.db #0x00	; 0
	.db #0x00	; 0
	.db #0x00	; 0
	.db #0x00	; 0
	.db #0x00	; 0
	.db #0x00	; 0
	.db #0x00	; 0
	.db #0x00	; 0
	.db #0x00	; 0
	.db #0x00	; 0
	.db #0x00	; 0
	.db #0x00	; 0
	.db #0x00	; 0
	.db #0x00	; 0
	.db #0x00	; 0
	.db #0x00	; 0
	.db #0x00	; 0
	.db #0x00	; 0
	.db #0x00	; 0
	.db #0x00	; 0
	.db #0x00	; 0
	.db #0x00	; 0
	.db #0x00	; 0
	.db #0x00	; 0
	.db #0x00	; 0
	.db #0x00	; 0
	.db #0x00	; 0
	.db #0x00	; 0
	.db #0x00	; 0
	.db #0x00	; 0
	.db #0x00	; 0
	.db #0x00	; 0
	.db #0x00	; 0
	.db #0x00	; 0
	.db #0x00	; 0
	.db #0x00	; 0
	.db #0x00	; 0
	.db #0x00	; 0
	.db #0x00	; 0
	.db #0x00	; 0
	.db #0x00	; 0
	.db #0x00	; 0
	.db #0x00	; 0
	.db #0x00	; 0
	.db #0x00	; 0
	.db #0x00	; 0
	.db #0x00	; 0
	.db #0x00	; 0
	.db #0x00	; 0
	.db #0x00	; 0
	.db #0x00	; 0
	.db #0x00	; 0
	.db #0x00	; 0
	.db #0x00	; 0
	.db #0x00	; 0
	.db #0x00	; 0
	.db #0x00	; 0
	.db #0x00	; 0
	.db #0x00	; 0
	.db #0x00	; 0
	.db #0x00	; 0
	.db #0x00	; 0
	.db #0x00	; 0
	.db #0x00	; 0
	.db #0x00	; 0
	.db #0x00	; 0
	.db #0x00	; 0
	.db #0x00	; 0
	.db #0x00	; 0
	.db #0x00	; 0
	.db #0x00	; 0
	.db #0x00	; 0
	.db #0x00	; 0
	.db #0x00	; 0
	.db #0x00	; 0
	.db #0x00	; 0
	.db #0x00	; 0
	.db #0x00	; 0
	.db #0x00	; 0
	.db #0x00	; 0
	.db #0x00	; 0
	.db #0x00	; 0
	.db #0x00	; 0
	.db #0x00	; 0
	.db #0x00	; 0
	.db #0x00	; 0
	.db #0x00	; 0
	.db #0x00	; 0
	.db #0x00	; 0
	.db #0x00	; 0
	.db #0x00	; 0
	.db #0x00	; 0
	.db #0x00	; 0
	.db #0x00	; 0
	.db #0x00	; 0
	.db #0x00	; 0
	.db #0x00	; 0
	.db #0x00	; 0
	.db #0x00	; 0
	.db #0x00	; 0
	.db #0x00	; 0
	.db #0x00	; 0
	.db #0x00	; 0
	.db #0x00	; 0
	.db #0x00	; 0
	.db #0x00	; 0
	.db #0x00	; 0
	.db #0x00	; 0
	.db #0x00	; 0
	.db #0x00	; 0
_Tileset_1:
	.db #0x00	; 0
	.db #0x00	; 0
	.db #0x00	; 0
	.db #0x00	; 0
	.db #0x00	; 0
	.db #0x00	; 0
	.db #0x00	; 0
	.db #0x00	; 0
	.db #0x00	; 0
	.db #0x00	; 0
	.db #0x00	; 0
	.db #0x00	; 0
	.db #0x00	; 0
	.db #0x00	; 0
	.db #0x00	; 0
	.db #0x00	; 0
	.db #0x02	; 2
	.db #0x00	; 0
	.db #0x00	; 0
	.db #0x00	; 0
	.db #0x40	; 64
	.db #0x00	; 0
	.db #0x40	; 64
	.db #0x00	; 0
	.db #0x01	; 1
	.db #0x00	; 0
	.db #0x00	; 0
	.db #0x00	; 0
	.db #0x08	; 8
	.db #0x00	; 0
	.db #0x08	; 8
	.db #0x00	; 0
	.db #0x00	; 0
	.db #0x00	; 0
	.db #0x00	; 0
	.db #0x00	; 0
	.db #0x41	; 65	'A'
	.db #0x00	; 0
	.db #0x22	; 34
	.db #0x00	; 0
	.db #0x20	; 32
	.db #0x00	; 0
	.db #0x40	; 64
	.db #0x00	; 0
	.db #0x44	; 68	'D'
	.db #0x00	; 0
	.db #0x00	; 0
	.db #0x00	; 0
	.db #0x00	; 0
	.db #0x00	; 0
	.db #0x20	; 32
	.db #0x00	; 0
	.db #0x40	; 64
	.db #0x00	; 0
	.db #0x41	; 65	'A'
	.db #0x00	; 0
	.db #0x00	; 0
	.db #0x00	; 0
	.db #0x00	; 0
	.db #0x00	; 0
	.db #0x04	; 4
	.db #0x00	; 0
	.db #0x24	; 36
	.db #0x00	; 0
	.db #0x00	; 0
	.db #0x00	; 0
	.db #0x00	; 0
	.db #0x00	; 0
	.db #0x00	; 0
	.db #0x00	; 0
	.db #0x48	; 72	'H'
	.db #0x00	; 0
	.db #0x42	; 66	'B'
	.db #0x00	; 0
	.db #0x02	; 2
	.db #0x00	; 0
	.db #0x00	; 0
	.db #0x00	; 0
	.db #0x00	; 0
	.db #0x00	; 0
	.db #0x1d	; 29
	.db #0xfe	; 254
	.db #0x9a	; 154
	.db #0x77	; 119	'w'
	.db #0x2a	; 42
	.db #0xe7	; 231
	.db #0x7b	; 123
	.db #0xc7	; 199
	.db #0xb3	; 179
	.db #0xcf	; 207
	.db #0x87	; 135
	.db #0xff	; 255
	.db #0x8f	; 143
	.db #0xff	; 255
	.db #0x71	; 113	'q'
	.db #0xff	; 255
	.db #0xfd	; 253
	.db #0xff	; 255
	.db #0x09	; 9
	.db #0xff	; 255
	.db #0x67	; 103	'g'
	.db #0x9f	; 159
	.db #0x29	; 41
	.db #0xdf	; 223
	.db #0x12	; 18
	.db #0xfe	; 254
	.db #0x12	; 18
	.db #0xfe	; 254
	.db #0xe4	; 228
	.db #0xfc	; 252
	.db #0xe8	; 232
	.db #0xf8	; 248
	.db #0xfd	; 253
	.db #0xff	; 255
	.db #0x09	; 9
	.db #0xff	; 255
	.db #0x67	; 103	'g'
	.db #0x9f	; 159
	.db #0x29	; 41
	.db #0xdf	; 223
	.db #0x12	; 18
	.db #0xfe	; 254
	.db #0x12	; 18
	.db #0xfe	; 254
	.db #0xe4	; 228
	.db #0xfc	; 252
	.db #0xe8	; 232
	.db #0xf8	; 248
	.db #0xe0	; 224
	.db #0xe0	; 224
	.db #0x80	; 128
	.db #0x80	; 128
	.db #0x00	; 0
	.db #0x00	; 0
	.db #0x00	; 0
	.db #0x00	; 0
	.db #0x00	; 0
	.db #0x00	; 0
	.db #0x00	; 0
	.db #0x00	; 0
	.db #0x00	; 0
	.db #0x00	; 0
	.db #0x00	; 0
	.db #0x00	; 0
	.db #0x1d	; 29
	.db #0xfe	; 254
	.db #0x92	; 146
	.db #0x7f	; 127
	.db #0x2a	; 42
	.db #0xe7	; 231
	.db #0x7b	; 123
	.db #0xc7	; 199
	.db #0xb3	; 179
	.db #0xcf	; 207
	.db #0x87	; 135
	.db #0xff	; 255
	.db #0x8f	; 143
	.db #0xff	; 255
	.db #0x71	; 113	'q'
	.db #0xff	; 255
	.db #0x5c	; 92
	.db #0xe3	; 227
	.db #0x9c	; 156
	.db #0xe3	; 227
	.db #0x40	; 64
	.db #0xff	; 255
	.db #0xa1	; 161
	.db #0x7f	; 127
	.db #0x1f	; 31
	.db #0xff	; 255
	.db #0xcf	; 207
	.db #0x3f	; 63
	.db #0xcb	; 203
	.db #0x3c	; 60
	.db #0x4b	; 75	'K'
	.db #0xbc	; 188
	.db #0x21	; 33
	.db #0xff	; 255
	.db #0x59	; 89	'Y'
	.db #0xbf	; 191
	.db #0x39	; 57	'9'
	.db #0xff	; 255
	.db #0x4d	; 77	'M'
	.db #0xf7	; 247
	.db #0x5b	; 91
	.db #0xe7	; 231
	.db #0xe1	; 225
	.db #0xff	; 255
	.db #0x21	; 33
	.db #0xff	; 255
	.db #0x7f	; 127
	.db #0xff	; 255
	.db #0xfd	; 253
	.db #0xff	; 255
	.db #0x09	; 9
	.db #0xff	; 255
	.db #0x67	; 103	'g'
	.db #0x9f	; 159
	.db #0x29	; 41
	.db #0xdf	; 223
	.db #0x12	; 18
	.db #0xfd	; 253
	.db #0x10	; 16
	.db #0xff	; 255
	.db #0xe2	; 226
	.db #0xfd	; 253
	.db #0xe6	; 230
	.db #0xf9	; 249
	.db #0x00	; 0
	.db #0x00	; 0
	.db #0x04	; 4
	.db #0x00	; 0
	.db #0x20	; 32
	.db #0x00	; 0
	.db #0x00	; 0
	.db #0x00	; 0
	.db #0x01	; 1
	.db #0x01	; 1
	.db #0x03	; 3
	.db #0x02	; 2
	.db #0x07	; 7
	.db #0x02	; 2
	.db #0x06	; 6
	.db #0x07	; 7
	.db #0x8e	; 142
	.db #0x07	; 7
	.db #0x0e	; 14
	.db #0x07	; 7
	.db #0x0e	; 14
	.db #0x0d	; 13
	.db #0x3c	; 60
	.db #0x1f	; 31
	.db #0x3c	; 60
	.db #0x1f	; 31
	.db #0x1e	; 30
	.db #0x3f	; 63
	.db #0x7f	; 127
	.db #0xff	; 255
	.db #0xe2	; 226
	.db #0xff	; 255
	.db #0x05	; 5
	.db #0x01	; 1
	.db #0x19	; 25
	.db #0x01	; 1
	.db #0x0f	; 15
	.db #0x07	; 7
	.db #0x29	; 41
	.db #0x0f	; 15
	.db #0x89	; 137
	.db #0x8f	; 143
	.db #0x71	; 113	'q'
	.db #0xff	; 255
	.db #0xb9	; 185
	.db #0x7f	; 127
	.db #0xc9	; 201
	.db #0x7f	; 127
	.db #0x7d	; 125
	.db #0xc7	; 199
	.db #0xff	; 255
	.db #0xc3	; 195
	.db #0xdd	; 221
	.db #0xe3	; 227
	.db #0xe9	; 233
	.db #0xf7	; 247
	.db #0x4f	; 79	'O'
	.db #0xff	; 255
	.db #0xc5	; 197
	.db #0xff	; 255
	.db #0xd3	; 211
	.db #0xef	; 239
	.db #0x02	; 2
	.db #0xff	; 255
	.db #0x00	; 0
	.db #0x00	; 0
	.db #0x00	; 0
	.db #0x00	; 0
	.db #0x00	; 0
	.db #0x00	; 0
	.db #0x20	; 32
	.db #0x00	; 0
	.db #0x00	; 0
	.db #0x00	; 0
	.db #0x00	; 0
	.db #0x00	; 0
	.db #0x00	; 0
	.db #0x00	; 0
	.db #0x00	; 0
	.db #0x00	; 0
	.db #0x00	; 0
	.db #0x00	; 0
	.db #0x00	; 0
	.db #0x00	; 0
	.db #0x04	; 4
	.db #0x00	; 0
	.db #0x02	; 2
	.db #0x00	; 0
	.db #0x03	; 3
	.db #0x00	; 0
	.db #0x00	; 0
	.db #0x00	; 0
	.db #0x00	; 0
	.db #0x00	; 0
	.db #0x00	; 0
	.db #0x00	; 0
	.db #0x07	; 7
	.db #0x01	; 1
	.db #0x21	; 33
	.db #0x01	; 1
	.db #0x05	; 5
	.db #0x01	; 1
	.db #0x06	; 6
	.db #0x03	; 3
	.db #0x02	; 2
	.db #0x03	; 3
	.db #0x05	; 5
	.db #0x01	; 1
	.db #0x47	; 71	'G'
	.db #0x01	; 1
	.db #0x02	; 2
	.db #0x03	; 3
	.db #0x02	; 2
	.db #0x03	; 3
	.db #0x07	; 7
	.db #0x01	; 1
	.db #0x0f	; 15
	.db #0x03	; 3
	.db #0x06	; 6
	.db #0x07	; 7
	.db #0x0c	; 12
	.db #0x07	; 7
	.db #0x07	; 7
	.db #0x03	; 3
	.db #0x21	; 33
	.db #0x01	; 1
	.db #0x07	; 7
	.db #0x01	; 1
	.db #0x1c	; 28
	.db #0xfe	; 254
	.db #0x12	; 18
	.db #0xff	; 255
	.db #0xa6	; 166
	.db #0xe3	; 227
	.db #0xe7	; 231
	.db #0xc3	; 195
	.db #0xbb	; 187
	.db #0xc7	; 199
	.db #0x97	; 151
	.db #0xef	; 239
	.db #0x8f	; 143
	.db #0xff	; 255
	.db #0xf1	; 241
	.db #0xff	; 255
	.db #0xc0	; 192
	.db #0xe3	; 227
	.db #0x96	; 150
	.db #0xe1	; 225
	.db #0xdc	; 220
	.db #0xe3	; 227
	.db #0xa1	; 161
	.db #0xff	; 255
	.db #0x5f	; 95
	.db #0x7f	; 127
	.db #0x4c	; 76	'L'
	.db #0x7c	; 124
	.db #0x2a	; 42
	.db #0x3c	; 60
	.db #0x1b	; 27
	.db #0x1c	; 28
	.db #0x5b	; 91
	.db #0xe0	; 224
	.db #0x5f	; 95
	.db #0xe0	; 224
	.db #0x4a	; 74	'J'
	.db #0xf5	; 245
	.db #0x40	; 64
	.db #0xff	; 255
	.db #0xf1	; 241
	.db #0xff	; 255
	.db #0xbe	; 190
	.db #0xcf	; 207
	.db #0x60	; 96
	.db #0x85	; 133
	.db #0x6c	; 108	'l'
	.db #0x83	; 131
	.db #0xbe	; 190
	.db #0xc1	; 193
	.db #0xb1	; 177
	.db #0xcf	; 207
	.db #0xc2	; 194
	.db #0xff	; 255
	.db #0xc2	; 194
	.db #0xff	; 255
	.db #0x2f	; 47
	.db #0xff	; 255
	.db #0x39	; 57	'9'
	.db #0xf9	; 249
	.db #0xb0	; 176
	.db #0xf0	; 240
	.db #0x40	; 64
	.db #0xc0	; 192
	.db #0x1d	; 29
	.db #0xfe	; 254
	.db #0x92	; 146
	.db #0x7f	; 127
	.db #0x2a	; 42
	.db #0xe7	; 231
	.db #0x7b	; 123
	.db #0xc7	; 199
	.db #0xb3	; 179
	.db #0xcf	; 207
	.db #0x87	; 135
	.db #0xff	; 255
	.db #0x8f	; 143
	.db #0xff	; 255
	.db #0x71	; 113	'q'
	.db #0xff	; 255
	.db #0x5c	; 92
	.db #0xe3	; 227
	.db #0x9c	; 156
	.db #0xe3	; 227
	.db #0x40	; 64
	.db #0xff	; 255
	.db #0xa1	; 161
	.db #0x7f	; 127
	.db #0x1f	; 31
	.db #0xff	; 255
	.db #0xcf	; 207
	.db #0x3f	; 63
	.db #0xcb	; 203
	.db #0x3c	; 60
	.db #0x4b	; 75	'K'
	.db #0xbc	; 188
	.db #0x5b	; 91
	.db #0xe0	; 224
	.db #0x5f	; 95
	.db #0xe0	; 224
	.db #0x4a	; 74	'J'
	.db #0xf5	; 245
	.db #0x40	; 64
	.db #0xff	; 255
	.db #0xf1	; 241
	.db #0xff	; 255
	.db #0xbe	; 190
	.db #0xcf	; 207
	.db #0x62	; 98	'b'
	.db #0x85	; 133
	.db #0x6c	; 108	'l'
	.db #0x83	; 131
	.db #0xbe	; 190
	.db #0xc1	; 193
	.db #0xb1	; 177
	.db #0xcf	; 207
	.db #0xc6	; 198
	.db #0xff	; 255
	.db #0xd9	; 217
	.db #0xfe	; 254
	.db #0x37	; 55	'7'
	.db #0xf8	; 248
	.db #0x29	; 41
	.db #0xf0	; 240
	.db #0xa1	; 161
	.db #0xf0	; 240
	.db #0x51	; 81	'Q'
	.db #0xe0	; 224
	.db #0x00	; 0
	.db #0x00	; 0
	.db #0x00	; 0
	.db #0x00	; 0
	.db #0x00	; 0
	.db #0x00	; 0
	.db #0x20	; 32
	.db #0x00	; 0
	.db #0x20	; 32
	.db #0x00	; 0
	.db #0x00	; 0
	.db #0x00	; 0
	.db #0x00	; 0
	.db #0x00	; 0
	.db #0x00	; 0
	.db #0x00	; 0
	.db #0x00	; 0
	.db #0x00	; 0
	.db #0x01	; 1
	.db #0x00	; 0
	.db #0x00	; 0
	.db #0x00	; 0
	.db #0x00	; 0
	.db #0x00	; 0
	.db #0x01	; 1
	.db #0x01	; 1
	.db #0x2e	; 46
	.db #0x03	; 3
	.db #0x7e	; 126
	.db #0x1f	; 31
	.db #0xe2	; 226
	.db #0xff	; 255
	.db #0x20	; 32
	.db #0x00	; 0
	.db #0x00	; 0
	.db #0x00	; 0
	.db #0x00	; 0
	.db #0x00	; 0
	.db #0x04	; 4
	.db #0x00	; 0
	.db #0x00	; 0
	.db #0x00	; 0
	.db #0x80	; 128
	.db #0x00	; 0
	.db #0x00	; 0
	.db #0x00	; 0
	.db #0x00	; 0
	.db #0x00	; 0
	.db #0x00	; 0
	.db #0x00	; 0
	.db #0x00	; 0
	.db #0x00	; 0
	.db #0x00	; 0
	.db #0x00	; 0
	.db #0x00	; 0
	.db #0x00	; 0
	.db #0xe0	; 224
	.db #0xe0	; 224
	.db #0xd4	; 212
	.db #0x30	; 48	'0'
	.db #0x8e	; 142
	.db #0x78	; 120	'x'
	.db #0x07	; 7
	.db #0xff	; 255
	.db #0xc0	; 192
	.db #0xe3	; 227
	.db #0x96	; 150
	.db #0xe1	; 225
	.db #0xdc	; 220
	.db #0xe3	; 227
	.db #0xa1	; 161
	.db #0xff	; 255
	.db #0x5f	; 95
	.db #0x7f	; 127
	.db #0x4c	; 76	'L'
	.db #0x7c	; 124
	.db #0x2a	; 42
	.db #0x3c	; 60
	.db #0x1b	; 27
	.db #0x1c	; 28
	.db #0x0c	; 12
	.db #0x0f	; 15
	.db #0x01	; 1
	.db #0x01	; 1
	.db #0x00	; 0
	.db #0x00	; 0
	.db #0x00	; 0
	.db #0x00	; 0
	.db #0x00	; 0
	.db #0x00	; 0
	.db #0x00	; 0
	.db #0x00	; 0
	.db #0x00	; 0
	.db #0x00	; 0
	.db #0x00	; 0
	.db #0x00	; 0
	.db #0x5b	; 91
	.db #0xe0	; 224
	.db #0x5f	; 95
	.db #0xe0	; 224
	.db #0x4a	; 74	'J'
	.db #0xf5	; 245
	.db #0x40	; 64
	.db #0xff	; 255
	.db #0xf1	; 241
	.db #0xff	; 255
	.db #0xbe	; 190
	.db #0xcf	; 207
	.db #0x62	; 98	'b'
	.db #0x85	; 133
	.db #0x6c	; 108	'l'
	.db #0x83	; 131
	.db #0x40	; 64
	.db #0xe3	; 227
	.db #0x96	; 150
	.db #0xe1	; 225
	.db #0xdc	; 220
	.db #0xe3	; 227
	.db #0xa1	; 161
	.db #0xff	; 255
	.db #0x5f	; 95
	.db #0x7f	; 127
	.db #0x4c	; 76	'L'
	.db #0x7c	; 124
	.db #0x2a	; 42
	.db #0x3c	; 60
	.db #0x1b	; 27
	.db #0x1c	; 28
	.db #0x44	; 68	'D'
	.db #0xff	; 255
	.db #0x7d	; 125
	.db #0xfe	; 254
	.db #0xc4	; 196
	.db #0xff	; 255
	.db #0xfe	; 254
	.db #0xc7	; 199
	.db #0xa7	; 167
	.db #0xdf	; 223
	.db #0x8f	; 143
	.db #0xff	; 255
	.db #0x8f	; 143
	.db #0xff	; 255
	.db #0xf1	; 241
	.db #0xff	; 255
	.db #0xdc	; 220
	.db #0xe3	; 227
	.db #0x9e	; 158
	.db #0xe1	; 225
	.db #0xdc	; 220
	.db #0xe3	; 227
	.db #0xa1	; 161
	.db #0xff	; 255
	.db #0x1f	; 31
	.db #0xff	; 255
	.db #0x4c	; 76	'L'
	.db #0xbc	; 188
	.db #0x4a	; 74	'J'
	.db #0xbc	; 188
	.db #0x4b	; 75	'K'
	.db #0xbc	; 188
	.db #0x5b	; 91
	.db #0xe0	; 224
	.db #0x5f	; 95
	.db #0xe0	; 224
	.db #0x4a	; 74	'J'
	.db #0xf5	; 245
	.db #0x40	; 64
	.db #0xff	; 255
	.db #0xf1	; 241
	.db #0xff	; 255
	.db #0xfe	; 254
	.db #0xcf	; 207
	.db #0x62	; 98	'b'
	.db #0x85	; 133
	.db #0x6c	; 108	'l'
	.db #0x83	; 131
	.db #0xbe	; 190
	.db #0xc1	; 193
	.db #0xb1	; 177
	.db #0xcf	; 207
	.db #0xc6	; 198
	.db #0xff	; 255
	.db #0xd9	; 217
	.db #0xfe	; 254
	.db #0x37	; 55	'7'
	.db #0xf8	; 248
	.db #0x29	; 41
	.db #0xf0	; 240
	.db #0xa1	; 161
	.db #0xf0	; 240
	.db #0x51	; 81	'Q'
	.db #0xe0	; 224
	.db #0xa0	; 160
	.db #0x80	; 128
	.db #0x98	; 152
	.db #0x80	; 128
	.db #0xf0	; 240
	.db #0xe0	; 224
	.db #0x94	; 148
	.db #0xf0	; 240
	.db #0x91	; 145
	.db #0xf1	; 241
	.db #0x8e	; 142
	.db #0xff	; 255
	.db #0x9d	; 157
	.db #0xfe	; 254
	.db #0x93	; 147
	.db #0xfe	; 254
	.db #0xbe	; 190
	.db #0xe3	; 227
	.db #0xff	; 255
	.db #0xc3	; 195
	.db #0xbb	; 187
	.db #0xc7	; 199
	.db #0x97	; 151
	.db #0xef	; 239
	.db #0xf2	; 242
	.db #0xff	; 255
	.db #0xa3	; 163
	.db #0xff	; 255
	.db #0xcb	; 203
	.db #0xf7	; 247
	.db #0x40	; 64
	.db #0xff	; 255
	.db #0x00	; 0
	.db #0x00	; 0
	.db #0x20	; 32
	.db #0x00	; 0
	.db #0x04	; 4
	.db #0x00	; 0
	.db #0x00	; 0
	.db #0x00	; 0
	.db #0x80	; 128
	.db #0x80	; 128
	.db #0xc0	; 192
	.db #0x40	; 64
	.db #0xe0	; 224
	.db #0x40	; 64
	.db #0x60	; 96
	.db #0xe0	; 224
	.db #0x71	; 113	'q'
	.db #0xe0	; 224
	.db #0x70	; 112	'p'
	.db #0xe0	; 224
	.db #0x70	; 112	'p'
	.db #0xb0	; 176
	.db #0x3c	; 60
	.db #0xf8	; 248
	.db #0x3c	; 60
	.db #0xf8	; 248
	.db #0x78	; 120	'x'
	.db #0xfc	; 252
	.db #0xfe	; 254
	.db #0xff	; 255
	.db #0x47	; 71	'G'
	.db #0xff	; 255
	.db #0xe0	; 224
	.db #0x80	; 128
	.db #0x84	; 132
	.db #0x80	; 128
	.db #0xa0	; 160
	.db #0x80	; 128
	.db #0x60	; 96
	.db #0xc0	; 192
	.db #0x40	; 64
	.db #0xc0	; 192
	.db #0xa0	; 160
	.db #0x80	; 128
	.db #0xe2	; 226
	.db #0x80	; 128
	.db #0x40	; 64
	.db #0xc0	; 192
	.db #0x40	; 64
	.db #0xc0	; 192
	.db #0xe0	; 224
	.db #0x80	; 128
	.db #0xf0	; 240
	.db #0xc0	; 192
	.db #0x60	; 96
	.db #0xe0	; 224
	.db #0x30	; 48	'0'
	.db #0xe0	; 224
	.db #0xe0	; 224
	.db #0xc0	; 192
	.db #0x84	; 132
	.db #0x80	; 128
	.db #0xe0	; 224
	.db #0x80	; 128
	.db #0x00	; 0
	.db #0x00	; 0
	.db #0x00	; 0
	.db #0x00	; 0
	.db #0x00	; 0
	.db #0x00	; 0
	.db #0x04	; 4
	.db #0x00	; 0
	.db #0x00	; 0
	.db #0x00	; 0
	.db #0x00	; 0
	.db #0x00	; 0
	.db #0x00	; 0
	.db #0x00	; 0
	.db #0x00	; 0
	.db #0x00	; 0
	.db #0x00	; 0
	.db #0x00	; 0
	.db #0x00	; 0
	.db #0x00	; 0
	.db #0x20	; 32
	.db #0x00	; 0
	.db #0x40	; 64
	.db #0x00	; 0
	.db #0xc0	; 192
	.db #0x00	; 0
	.db #0x00	; 0
	.db #0x00	; 0
	.db #0x00	; 0
	.db #0x00	; 0
	.db #0x00	; 0
	.db #0x00	; 0
	.db #0xb0	; 176
	.db #0xb0	; 176
	.db #0x48	; 72	'H'
	.db #0x48	; 72	'H'
	.db #0x68	; 104	'h'
	.db #0x08	; 8
	.db #0x1e	; 30
	.db #0x06	; 6
	.db #0x15	; 21
	.db #0x01	; 1
	.db #0x05	; 5
	.db #0x01	; 1
	.db #0x81	; 129
	.db #0x01	; 1
	.db #0x02	; 2
	.db #0x02	; 2
	.db #0x83	; 131
	.db #0x03	; 3
	.db #0x01	; 1
	.db #0x01	; 1
	.db #0x00	; 0
	.db #0x00	; 0
	.db #0x40	; 64
	.db #0x00	; 0
	.db #0x40	; 64
	.db #0x00	; 0
	.db #0x00	; 0
	.db #0x00	; 0
	.db #0x00	; 0
	.db #0x00	; 0
	.db #0x00	; 0
	.db #0x00	; 0
	.db #0x30	; 48	'0'
	.db #0x30	; 48	'0'
	.db #0xc8	; 200
	.db #0xc8	; 200
	.db #0x68	; 104	'h'
	.db #0x08	; 8
	.db #0x1e	; 30
	.db #0x06	; 6
	.db #0x15	; 21
	.db #0x01	; 1
	.db #0x05	; 5
	.db #0x01	; 1
	.db #0x82	; 130
	.db #0x02	; 2
	.db #0x01	; 1
	.db #0x01	; 1
	.db #0xe0	; 224
	.db #0xe0	; 224
	.db #0x90	; 144
	.db #0x10	; 16
	.db #0xb6	; 182
	.db #0x0e	; 14
	.db #0x2b	; 43
	.db #0x09	; 9
	.db #0x26	; 38
	.db #0x00	; 0
	.db #0x00	; 0
	.db #0x00	; 0
	.db #0x00	; 0
	.db #0x00	; 0
	.db #0x00	; 0
	.db #0x00	; 0
	.db #0x00	; 0
	.db #0x00	; 0
	.db #0x00	; 0
	.db #0x00	; 0
	.db #0x00	; 0
	.db #0x00	; 0
	.db #0x00	; 0
	.db #0x00	; 0
	.db #0x00	; 0
	.db #0x00	; 0
	.db #0x20	; 32
	.db #0x00	; 0
	.db #0x00	; 0
	.db #0x00	; 0
	.db #0x02	; 2
	.db #0x00	; 0
	.db #0x05	; 5
	.db #0x07	; 7
	.db #0x0b	; 11
	.db #0x0a	; 10
	.db #0x6d	; 109	'm'
	.db #0x68	; 104	'h'
	.db #0xd0	; 208
	.db #0x90	; 144
	.db #0x70	; 112	'p'
	.db #0x00	; 0
	.db #0x10	; 16
	.db #0x00	; 0
	.db #0x10	; 16
	.db #0x00	; 0
	.db #0x00	; 0
	.db #0x00	; 0
	.db #0x10	; 16
	.db #0x00	; 0
	.db #0x00	; 0
	.db #0x00	; 0
	.db #0x00	; 0
	.db #0x00	; 0
	.db #0x00	; 0
	.db #0x00	; 0
	.db #0x20	; 32
	.db #0x00	; 0
	.db #0x04	; 4
	.db #0x00	; 0
	.db #0x00	; 0
	.db #0x00	; 0
	.db #0x00	; 0
	.db #0x00	; 0
	.db #0x0c	; 12
	.db #0x0c	; 12
	.db #0x13	; 19
	.db #0x13	; 19
	.db #0x16	; 22
	.db #0x10	; 16
	.db #0x78	; 120	'x'
	.db #0x60	; 96
	.db #0xa8	; 168
	.db #0x80	; 128
	.db #0xa0	; 160
	.db #0x80	; 128
	.db #0x81	; 129
	.db #0x80	; 128
	.db #0x40	; 64
	.db #0xc0	; 192
	.db #0x0c	; 12
	.db #0x0c	; 12
	.db #0x13	; 19
	.db #0x13	; 19
	.db #0x16	; 22
	.db #0x10	; 16
	.db #0x78	; 120	'x'
	.db #0x60	; 96
	.db #0xa8	; 168
	.db #0x80	; 128
	.db #0xa0	; 160
	.db #0x80	; 128
	.db #0x81	; 129
	.db #0x80	; 128
	.db #0x40	; 64
	.db #0x40	; 64
	.db #0xc1	; 193
	.db #0xc0	; 192
	.db #0x80	; 128
	.db #0x80	; 128
	.db #0x00	; 0
	.db #0x00	; 0
	.db #0x04	; 4
	.db #0x00	; 0
	.db #0x04	; 4
	.db #0x00	; 0
	.db #0x00	; 0
	.db #0x00	; 0
	.db #0x00	; 0
	.db #0x00	; 0
	.db #0x00	; 0
	.db #0x00	; 0
	.db #0xd4	; 212
	.db #0xaf	; 175
	.db #0xd4	; 212
	.db #0xaf	; 175
	.db #0xf4	; 244
	.db #0x8f	; 143
	.db #0xf4	; 244
	.db #0x8f	; 143
	.db #0xf5	; 245
	.db #0x8e	; 142
	.db #0xe5	; 229
	.db #0x9e	; 158
	.db #0xe5	; 229
	.db #0x9e	; 158
	.db #0xe4	; 228
	.db #0x9f	; 159
	.db #0xf4	; 244
	.db #0x8f	; 143
	.db #0xb4	; 180
	.db #0xcf	; 207
	.db #0xb4	; 180
	.db #0xcf	; 207
	.db #0xb4	; 180
	.db #0xcf	; 207
	.db #0xb4	; 180
	.db #0xcf	; 207
	.db #0xf4	; 244
	.db #0x8f	; 143
	.db #0xf5	; 245
	.db #0x8f	; 143
	.db #0xcf	; 207
	.db #0xff	; 255
	.db #0xff	; 255
	.db #0x00	; 0
	.db #0xff	; 255
	.db #0x00	; 0
	.db #0xff	; 255
	.db #0x00	; 0
	.db #0x00	; 0
	.db #0xff	; 255
	.db #0xef	; 239
	.db #0x10	; 16
	.db #0xef	; 239
	.db #0x10	; 16
	.db #0xef	; 239
	.db #0x10	; 16
	.db #0x00	; 0
	.db #0xff	; 255
	.db #0xff	; 255
	.db #0x00	; 0
	.db #0xff	; 255
	.db #0x00	; 0
	.db #0xff	; 255
	.db #0x00	; 0
	.db #0x00	; 0
	.db #0xff	; 255
	.db #0xef	; 239
	.db #0x10	; 16
	.db #0x00	; 0
	.db #0xff	; 255
	.db #0xff	; 255
	.db #0xff	; 255
	.db #0xff	; 255
	.db #0xff	; 255
	.db #0xff	; 255
	.db #0x00	; 0
	.db #0xff	; 255
	.db #0x00	; 0
	.db #0xff	; 255
	.db #0x00	; 0
	.db #0x00	; 0
	.db #0xff	; 255
	.db #0xef	; 239
	.db #0x10	; 16
	.db #0xef	; 239
	.db #0x10	; 16
	.db #0xef	; 239
	.db #0x10	; 16
	.db #0x00	; 0
	.db #0xff	; 255
	.db #0xff	; 255
	.db #0x00	; 0
	.db #0xff	; 255
	.db #0x00	; 0
	.db #0xff	; 255
	.db #0x00	; 0
	.db #0x00	; 0
	.db #0xff	; 255
	.db #0xef	; 239
	.db #0x10	; 16
	.db #0x00	; 0
	.db #0xff	; 255
	.db #0xff	; 255
	.db #0xff	; 255
	.db #0xff	; 255
	.db #0xff	; 255
	.db #0xdf	; 223
	.db #0x20	; 32
	.db #0xdf	; 223
	.db #0x20	; 32
	.db #0xdf	; 223
	.db #0x20	; 32
	.db #0x00	; 0
	.db #0xff	; 255
	.db #0xff	; 255
	.db #0x00	; 0
	.db #0xff	; 255
	.db #0x00	; 0
	.db #0xff	; 255
	.db #0x00	; 0
	.db #0x00	; 0
	.db #0xff	; 255
	.db #0xdf	; 223
	.db #0x20	; 32
	.db #0xdf	; 223
	.db #0x20	; 32
	.db #0xdf	; 223
	.db #0x20	; 32
	.db #0x00	; 0
	.db #0xff	; 255
	.db #0xff	; 255
	.db #0x00	; 0
	.db #0x00	; 0
	.db #0xff	; 255
	.db #0xff	; 255
	.db #0xff	; 255
	.db #0xff	; 255
	.db #0xff	; 255
	.db #0xdf	; 223
	.db #0x20	; 32
	.db #0xdf	; 223
	.db #0x20	; 32
	.db #0xdf	; 223
	.db #0x20	; 32
	.db #0x00	; 0
	.db #0xff	; 255
	.db #0xff	; 255
	.db #0x00	; 0
	.db #0xff	; 255
	.db #0x00	; 0
	.db #0xff	; 255
	.db #0x00	; 0
	.db #0x00	; 0
	.db #0xff	; 255
	.db #0xdf	; 223
	.db #0x20	; 32
	.db #0xdf	; 223
	.db #0x20	; 32
	.db #0xdf	; 223
	.db #0x20	; 32
	.db #0x00	; 0
	.db #0xff	; 255
	.db #0xff	; 255
	.db #0x00	; 0
	.db #0x00	; 0
	.db #0xff	; 255
	.db #0xff	; 255
	.db #0xff	; 255
	.db #0xff	; 255
	.db #0xff	; 255
	.db #0xab	; 171
	.db #0x75	; 117	'u'
	.db #0xab	; 171
	.db #0x75	; 117	'u'
	.db #0xaf	; 175
	.db #0x71	; 113	'q'
	.db #0x2f	; 47
	.db #0xf1	; 241
	.db #0x2f	; 47
	.db #0xf1	; 241
	.db #0x2f	; 47
	.db #0xf1	; 241
	.db #0x27	; 39
	.db #0xf9	; 249
	.db #0x27	; 39
	.db #0xf9	; 249
	.db #0xa7	; 167
	.db #0x79	; 121	'y'
	.db #0xaf	; 175
	.db #0x71	; 113	'q'
	.db #0xad	; 173
	.db #0x73	; 115	's'
	.db #0x2d	; 45
	.db #0xf3	; 243
	.db #0x2d	; 45
	.db #0xf3	; 243
	.db #0x2f	; 47
	.db #0xf1	; 241
	.db #0xaf	; 175
	.db #0xf1	; 241
	.db #0xf3	; 243
	.db #0xff	; 255
	.db #0xf7	; 247
	.db #0x8f	; 143
	.db #0xe4	; 228
	.db #0x9f	; 159
	.db #0xf5	; 245
	.db #0x8f	; 143
	.db #0xf7	; 247
	.db #0x8e	; 142
	.db #0xd7	; 215
	.db #0xac	; 172
	.db #0xd6	; 214
	.db #0xad	; 173
	.db #0xd5	; 213
	.db #0xaf	; 175
	.db #0xf6	; 246
	.db #0x8f	; 143
	.db #0xf4	; 244
	.db #0x8f	; 143
	.db #0xf4	; 244
	.db #0x8f	; 143
	.db #0xf4	; 244
	.db #0x8f	; 143
	.db #0xb4	; 180
	.db #0xcf	; 207
	.db #0xb5	; 181
	.db #0xce	; 206
	.db #0xb5	; 181
	.db #0xce	; 206
	.db #0xb5	; 181
	.db #0xce	; 206
	.db #0xf4	; 244
	.db #0x8f	; 143
	.db #0xff	; 255
	.db #0xff	; 255
	.db #0xe8	; 232
	.db #0x9f	; 159
	.db #0xd0	; 208
	.db #0x3f	; 63
	.db #0xa0	; 160
	.db #0x7f	; 127
	.db #0x40	; 64
	.db #0xff	; 255
	.db #0x8f	; 143
	.db #0xf0	; 240
	.db #0x1f	; 31
	.db #0xe0	; 224
	.db #0x00	; 0
	.db #0xff	; 255
	.db #0xff	; 255
	.db #0x00	; 0
	.db #0xff	; 255
	.db #0x00	; 0
	.db #0xff	; 255
	.db #0x00	; 0
	.db #0x00	; 0
	.db #0xff	; 255
	.db #0xef	; 239
	.db #0x10	; 16
	.db #0xef	; 239
	.db #0x10	; 16
	.db #0xef	; 239
	.db #0x10	; 16
	.db #0x00	; 0
	.db #0xff	; 255
	.db #0xff	; 255
	.db #0xff	; 255
	.db #0x00	; 0
	.db #0xff	; 255
	.db #0x00	; 0
	.db #0xff	; 255
	.db #0x00	; 0
	.db #0xff	; 255
	.db #0xef	; 239
	.db #0x10	; 16
	.db #0xef	; 239
	.db #0x10	; 16
	.db #0xef	; 239
	.db #0x10	; 16
	.db #0x00	; 0
	.db #0xff	; 255
	.db #0xff	; 255
	.db #0x00	; 0
	.db #0xff	; 255
	.db #0x00	; 0
	.db #0xff	; 255
	.db #0x00	; 0
	.db #0x00	; 0
	.db #0xff	; 255
	.db #0xef	; 239
	.db #0x10	; 16
	.db #0xef	; 239
	.db #0x10	; 16
	.db #0xef	; 239
	.db #0x10	; 16
	.db #0x00	; 0
	.db #0xff	; 255
	.db #0xff	; 255
	.db #0xff	; 255
	.db #0x00	; 0
	.db #0xff	; 255
	.db #0x00	; 0
	.db #0xff	; 255
	.db #0x00	; 0
	.db #0xff	; 255
	.db #0xff	; 255
	.db #0x00	; 0
	.db #0xff	; 255
	.db #0x00	; 0
	.db #0xff	; 255
	.db #0x00	; 0
	.db #0x00	; 0
	.db #0xff	; 255
	.db #0xef	; 239
	.db #0x10	; 16
	.db #0xef	; 239
	.db #0x10	; 16
	.db #0xef	; 239
	.db #0x10	; 16
	.db #0x00	; 0
	.db #0xff	; 255
	.db #0xff	; 255
	.db #0x00	; 0
	.db #0xff	; 255
	.db #0x00	; 0
	.db #0xff	; 255
	.db #0x00	; 0
	.db #0x00	; 0
	.db #0xff	; 255
	.db #0xff	; 255
	.db #0xff	; 255
	.db #0x17	; 23
	.db #0xf9	; 249
	.db #0x0b	; 11
	.db #0xfc	; 252
	.db #0x05	; 5
	.db #0xfe	; 254
	.db #0xe2	; 226
	.db #0x1f	; 31
	.db #0xf1	; 241
	.db #0x0f	; 15
	.db #0xfc	; 252
	.db #0x03	; 3
	.db #0x00	; 0
	.db #0xff	; 255
	.db #0xdf	; 223
	.db #0x20	; 32
	.db #0xdf	; 223
	.db #0x20	; 32
	.db #0xdf	; 223
	.db #0x20	; 32
	.db #0x00	; 0
	.db #0xff	; 255
	.db #0xff	; 255
	.db #0x00	; 0
	.db #0xff	; 255
	.db #0x00	; 0
	.db #0xff	; 255
	.db #0x00	; 0
	.db #0x00	; 0
	.db #0xff	; 255
	.db #0xef	; 239
	.db #0xf1	; 241
	.db #0x27	; 39
	.db #0xf9	; 249
	.db #0xaf	; 175
	.db #0xf1	; 241
	.db #0xef	; 239
	.db #0x71	; 113	'q'
	.db #0xeb	; 235
	.db #0x35	; 53	'5'
	.db #0x6b	; 107	'k'
	.db #0xb5	; 181
	.db #0xab	; 171
	.db #0xf5	; 245
	.db #0x6f	; 111	'o'
	.db #0xf1	; 241
	.db #0xaf	; 175
	.db #0x71	; 113	'q'
	.db #0xaf	; 175
	.db #0x71	; 113	'q'
	.db #0xaf	; 175
	.db #0x71	; 113	'q'
	.db #0x2d	; 45
	.db #0xf3	; 243
	.db #0x2d	; 45
	.db #0xf3	; 243
	.db #0x2d	; 45
	.db #0xf3	; 243
	.db #0x2d	; 45
	.db #0xf3	; 243
	.db #0x2f	; 47
	.db #0xf1	; 241
	.db #0xff	; 255
	.db #0x7f	; 127
	.db #0xcc	; 204
	.db #0x70	; 112	'p'
	.db #0xdf	; 223
	.db #0x60	; 96
	.db #0x5b	; 91
	.db #0xe4	; 228
	.db #0xc0	; 192
	.db #0x7b	; 123
	.db #0xc0	; 192
	.db #0x40	; 64
	.db #0xff	; 255
	.db #0x7f	; 127
	.db #0x40	; 64
	.db #0xff	; 255
	.db #0xdf	; 223
	.db #0x60	; 96
	.db #0xdf	; 223
	.db #0x60	; 96
	.db #0xdb	; 219
	.db #0x64	; 100	'd'
	.db #0x40	; 64
	.db #0xfb	; 251
	.db #0xc0	; 192
	.db #0x40	; 64
	.db #0x7f	; 127
	.db #0xff	; 255
	.db #0xc0	; 192
	.db #0xff	; 255
	.db #0xff	; 255
	.db #0xff	; 255
	.db #0xff	; 255
	.db #0xfe	; 254
	.db #0x33	; 51	'3'
	.db #0x0e	; 14
	.db #0xfb	; 251
	.db #0x06	; 6
	.db #0xfe	; 254
	.db #0x03	; 3
	.db #0xff	; 255
	.db #0x02	; 2
	.db #0x7f	; 127
	.db #0x82	; 130
	.db #0xff	; 255
	.db #0x02	; 2
	.db #0xd2	; 210
	.db #0x2f	; 47
	.db #0x83	; 131
	.db #0x52	; 82	'R'
	.db #0x8b	; 139
	.db #0x4a	; 74	'J'
	.db #0xff	; 255
	.db #0x36	; 54	'6'
	.db #0xfe	; 254
	.db #0x03	; 3
	.db #0x7f	; 127
	.db #0x82	; 130
	.db #0xfe	; 254
	.db #0x03	; 3
	.db #0xff	; 255
	.db #0x03	; 3
	.db #0xff	; 255
	.db #0xff	; 255
	.db #0x88	; 136
	.db #0xff	; 255
	.db #0x88	; 136
	.db #0xff	; 255
	.db #0x88	; 136
	.db #0xff	; 255
	.db #0x88	; 136
	.db #0xff	; 255
	.db #0x9c	; 156
	.db #0xeb	; 235
	.db #0xff	; 255
	.db #0x8c	; 140
	.db #0xb3	; 179
	.db #0x9e	; 158
	.db #0xe1	; 225
	.db #0xff	; 255
	.db #0xa0	; 160
	.db #0xff	; 255
	.db #0x80	; 128
	.db #0xff	; 255
	.db #0x80	; 128
	.db #0xff	; 255
	.db #0x80	; 128
	.db #0xff	; 255
	.db #0xc1	; 193
	.db #0xbe	; 190
	.db #0xff	; 255
	.db #0xc0	; 192
	.db #0xf3	; 243
	.db #0xe1	; 225
	.db #0xff	; 255
	.db #0xff	; 255
	.db #0x08	; 8
	.db #0xff	; 255
	.db #0x08	; 8
	.db #0xff	; 255
	.db #0x08	; 8
	.db #0xff	; 255
	.db #0x08	; 8
	.db #0xff	; 255
	.db #0x1c	; 28
	.db #0xeb	; 235
	.db #0xff	; 255
	.db #0x0c	; 12
	.db #0x33	; 51	'3'
	.db #0x1e	; 30
	.db #0xe1	; 225
	.db #0xff	; 255
	.db #0xa0	; 160
	.db #0xff	; 255
	.db #0x80	; 128
	.db #0xff	; 255
	.db #0x80	; 128
	.db #0xff	; 255
	.db #0x80	; 128
	.db #0xff	; 255
	.db #0xc1	; 193
	.db #0xbe	; 190
	.db #0xff	; 255
	.db #0xc0	; 192
	.db #0xf3	; 243
	.db #0xe1	; 225
	.db #0xff	; 255
	.db #0xff	; 255
	.db #0xff	; 255
	.db #0xff	; 255
	.db #0xff	; 255
	.db #0x80	; 128
	.db #0xff	; 255
	.db #0x80	; 128
	.db #0x80	; 128
	.db #0xff	; 255
	.db #0xff	; 255
	.db #0xff	; 255
	.db #0xff	; 255
	.db #0xff	; 255
	.db #0xf3	; 243
	.db #0xff	; 255
	.db #0xe1	; 225
	.db #0xff	; 255
	.db #0xa0	; 160
	.db #0xff	; 255
	.db #0x80	; 128
	.db #0xff	; 255
	.db #0x80	; 128
	.db #0xff	; 255
	.db #0x80	; 128
	.db #0xff	; 255
	.db #0xc1	; 193
	.db #0xbe	; 190
	.db #0xff	; 255
	.db #0xc0	; 192
	.db #0xb3	; 179
	.db #0xe1	; 225
	.db #0x9e	; 158
	.db #0xff	; 255
	.db #0xff	; 255
	.db #0xff	; 255
	.db #0xff	; 255
	.db #0x00	; 0
	.db #0xff	; 255
	.db #0x00	; 0
	.db #0x00	; 0
	.db #0xff	; 255
	.db #0xff	; 255
	.db #0xff	; 255
	.db #0xff	; 255
	.db #0xff	; 255
	.db #0xf3	; 243
	.db #0xff	; 255
	.db #0xe1	; 225
	.db #0xff	; 255
	.db #0xa0	; 160
	.db #0xff	; 255
	.db #0x80	; 128
	.db #0xff	; 255
	.db #0x80	; 128
	.db #0xff	; 255
	.db #0x80	; 128
	.db #0xff	; 255
	.db #0xc1	; 193
	.db #0xbe	; 190
	.db #0xff	; 255
	.db #0xc0	; 192
	.db #0x33	; 51	'3'
	.db #0xe1	; 225
	.db #0x1e	; 30
	.db #0xff	; 255
	.db #0x08	; 8
	.db #0xff	; 255
	.db #0x08	; 8
	.db #0xff	; 255
	.db #0x08	; 8
	.db #0xff	; 255
	.db #0x08	; 8
	.db #0xff	; 255
	.db #0x1c	; 28
	.db #0xeb	; 235
	.db #0xff	; 255
	.db #0x0c	; 12
	.db #0x33	; 51	'3'
	.db #0x1e	; 30
	.db #0xe1	; 225
	.db #0xff	; 255
	.db #0xa0	; 160
	.db #0xff	; 255
	.db #0x80	; 128
	.db #0xff	; 255
	.db #0x80	; 128
	.db #0xff	; 255
	.db #0x80	; 128
	.db #0xff	; 255
	.db #0xc1	; 193
	.db #0xbe	; 190
	.db #0xff	; 255
	.db #0xc0	; 192
	.db #0xf3	; 243
	.db #0xe1	; 225
	.db #0xff	; 255
	.db #0xff	; 255
	.db #0x08	; 8
	.db #0xff	; 255
	.db #0x08	; 8
	.db #0xff	; 255
	.db #0x08	; 8
	.db #0xff	; 255
	.db #0x08	; 8
	.db #0xff	; 255
	.db #0x0c	; 12
	.db #0xfb	; 251
	.db #0xff	; 255
	.db #0x0c	; 12
	.db #0x33	; 51	'3'
	.db #0x1e	; 30
	.db #0xe1	; 225
	.db #0xff	; 255
	.db #0xa0	; 160
	.db #0xff	; 255
	.db #0x80	; 128
	.db #0xff	; 255
	.db #0x80	; 128
	.db #0xff	; 255
	.db #0x80	; 128
	.db #0xff	; 255
	.db #0xc1	; 193
	.db #0xbe	; 190
	.db #0xff	; 255
	.db #0xc0	; 192
	.db #0xf3	; 243
	.db #0xe1	; 225
	.db #0xff	; 255
	.db #0xff	; 255
	.db #0xff	; 255
	.db #0xff	; 255
	.db #0xff	; 255
	.db #0x00	; 0
	.db #0xff	; 255
	.db #0x00	; 0
	.db #0x00	; 0
	.db #0xff	; 255
	.db #0xff	; 255
	.db #0xff	; 255
	.db #0xff	; 255
	.db #0xff	; 255
	.db #0xf3	; 243
	.db #0xff	; 255
	.db #0xe1	; 225
	.db #0xff	; 255
	.db #0xa0	; 160
	.db #0xff	; 255
	.db #0x80	; 128
	.db #0xff	; 255
	.db #0x80	; 128
	.db #0xff	; 255
	.db #0x80	; 128
	.db #0xff	; 255
	.db #0xc1	; 193
	.db #0xbe	; 190
	.db #0xff	; 255
	.db #0xc0	; 192
	.db #0x33	; 51	'3'
	.db #0xe1	; 225
	.db #0x1e	; 30
	.db #0xff	; 255
	.db #0xff	; 255
	.db #0xff	; 255
	.db #0xff	; 255
	.db #0x00	; 0
	.db #0xff	; 255
	.db #0x00	; 0
	.db #0x00	; 0
	.db #0xff	; 255
	.db #0xff	; 255
	.db #0xff	; 255
	.db #0xff	; 255
	.db #0xff	; 255
	.db #0xf3	; 243
	.db #0xff	; 255
	.db #0xe1	; 225
	.db #0xff	; 255
	.db #0xa0	; 160
	.db #0xff	; 255
	.db #0x80	; 128
	.db #0xff	; 255
	.db #0x80	; 128
	.db #0xff	; 255
	.db #0x80	; 128
	.db #0xff	; 255
	.db #0xc0	; 192
	.db #0xbf	; 191
	.db #0xff	; 255
	.db #0xc0	; 192
	.db #0x33	; 51	'3'
	.db #0xe1	; 225
	.db #0x1e	; 30
	.db #0xff	; 255
	.db #0x08	; 8
	.db #0xff	; 255
	.db #0x08	; 8
	.db #0xff	; 255
	.db #0x08	; 8
	.db #0xff	; 255
	.db #0x08	; 8
	.db #0xff	; 255
	.db #0x1c	; 28
	.db #0xeb	; 235
	.db #0xff	; 255
	.db #0x0c	; 12
	.db #0x33	; 51	'3'
	.db #0x1e	; 30
	.db #0xe1	; 225
	.db #0xff	; 255
	.db #0xa0	; 160
	.db #0xff	; 255
	.db #0x80	; 128
	.db #0xff	; 255
	.db #0x80	; 128
	.db #0xff	; 255
	.db #0x80	; 128
	.db #0xff	; 255
	.db #0xc1	; 193
	.db #0xbe	; 190
	.db #0xff	; 255
	.db #0xc0	; 192
	.db #0xf3	; 243
	.db #0xe1	; 225
	.db #0xff	; 255
	.db #0xff	; 255
	.db #0x09	; 9
	.db #0xff	; 255
	.db #0x09	; 9
	.db #0xff	; 255
	.db #0x09	; 9
	.db #0xff	; 255
	.db #0x09	; 9
	.db #0xff	; 255
	.db #0x1d	; 29
	.db #0xeb	; 235
	.db #0xff	; 255
	.db #0x0d	; 13
	.db #0x33	; 51	'3'
	.db #0x1f	; 31
	.db #0xe1	; 225
	.db #0xff	; 255
	.db #0xa1	; 161
	.db #0xff	; 255
	.db #0x81	; 129
	.db #0xff	; 255
	.db #0x81	; 129
	.db #0xff	; 255
	.db #0x81	; 129
	.db #0xff	; 255
	.db #0xc1	; 193
	.db #0xbf	; 191
	.db #0xff	; 255
	.db #0xc1	; 193
	.db #0xf3	; 243
	.db #0xe1	; 225
	.db #0xff	; 255
	.db #0xff	; 255
	.db #0xff	; 255
	.db #0xff	; 255
	.db #0xff	; 255
	.db #0x00	; 0
	.db #0xff	; 255
	.db #0x00	; 0
	.db #0x00	; 0
	.db #0xff	; 255
	.db #0xff	; 255
	.db #0xff	; 255
	.db #0xff	; 255
	.db #0xff	; 255
	.db #0xf3	; 243
	.db #0xff	; 255
	.db #0xe1	; 225
	.db #0xff	; 255
	.db #0xa0	; 160
	.db #0xff	; 255
	.db #0x80	; 128
	.db #0xff	; 255
	.db #0x80	; 128
	.db #0xff	; 255
	.db #0x80	; 128
	.db #0xff	; 255
	.db #0xc1	; 193
	.db #0xbe	; 190
	.db #0xff	; 255
	.db #0xc0	; 192
	.db #0x33	; 51	'3'
	.db #0xe1	; 225
	.db #0x1e	; 30
	.db #0xff	; 255
	.db #0xff	; 255
	.db #0xff	; 255
	.db #0xff	; 255
	.db #0x01	; 1
	.db #0xff	; 255
	.db #0x01	; 1
	.db #0x01	; 1
	.db #0xff	; 255
	.db #0xff	; 255
	.db #0xff	; 255
	.db #0xff	; 255
	.db #0xff	; 255
	.db #0xf3	; 243
	.db #0xff	; 255
	.db #0xe1	; 225
	.db #0xff	; 255
	.db #0xa1	; 161
	.db #0xff	; 255
	.db #0x81	; 129
	.db #0xff	; 255
	.db #0x81	; 129
	.db #0xff	; 255
	.db #0x81	; 129
	.db #0xff	; 255
	.db #0xc1	; 193
	.db #0xbf	; 191
	.db #0xff	; 255
	.db #0xc1	; 193
	.db #0x33	; 51	'3'
	.db #0xe1	; 225
	.db #0x1f	; 31
	.db #0xff	; 255
	.db #0xff	; 255
	.db #0x03	; 3
	.db #0xfd	; 253
	.db #0x06	; 6
	.db #0xfb	; 251
	.db #0x0f	; 15
	.db #0x16	; 22
	.db #0xfc	; 252
	.db #0xf4	; 244
	.db #0x1c	; 28
	.db #0xf4	; 244
	.db #0x1c	; 28
	.db #0xf4	; 244
	.db #0x1c	; 28
	.db #0x14	; 20
	.db #0xfc	; 252
	.db #0xf4	; 244
	.db #0x1c	; 28
	.db #0xfc	; 252
	.db #0x1c	; 28
	.db #0xff	; 255
	.db #0x17	; 23
	.db #0x1f	; 31
	.db #0xf0	; 240
	.db #0xf0	; 240
	.db #0x1f	; 31
	.db #0x1f	; 31
	.db #0xff	; 255
	.db #0xff	; 255
	.db #0xff	; 255
	.db #0xff	; 255
	.db #0xff	; 255
	.db #0xff	; 255
	.db #0xc0	; 192
	.db #0xbf	; 191
	.db #0x60	; 96
	.db #0xdf	; 223
	.db #0xf0	; 240
	.db #0x68	; 104	'h'
	.db #0x3f	; 63
	.db #0x2f	; 47
	.db #0x38	; 56	'8'
	.db #0x2f	; 47
	.db #0x38	; 56	'8'
	.db #0x2f	; 47
	.db #0x38	; 56	'8'
	.db #0x28	; 40
	.db #0x3f	; 63
	.db #0x2f	; 47
	.db #0x38	; 56	'8'
	.db #0x3f	; 63
	.db #0x38	; 56	'8'
	.db #0xff	; 255
	.db #0xe8	; 232
	.db #0xf8	; 248
	.db #0x0f	; 15
	.db #0x0f	; 15
	.db #0xf8	; 248
	.db #0xf8	; 248
	.db #0xff	; 255
	.db #0xff	; 255
	.db #0xff	; 255
	.db #0xff	; 255
	.db #0xff	; 255
	.db #0x03	; 3
	.db #0x03	; 3
	.db #0x0c	; 12
	.db #0x0f	; 15
	.db #0x13	; 19
	.db #0x1f	; 31
	.db #0x3f	; 63
	.db #0x2f	; 47
	.db #0x1b	; 27
	.db #0x13	; 19
	.db #0x0c	; 12
	.db #0x0c	; 12
	.db #0x08	; 8
	.db #0x0f	; 15
	.db #0x12	; 18
	.db #0x11	; 17
	.db #0x13	; 19
	.db #0x10	; 16
	.db #0x2f	; 47
	.db #0x30	; 48	'0'
	.db #0x26	; 38
	.db #0x39	; 57	'9'
	.db #0x30	; 48	'0'
	.db #0x3f	; 63
	.db #0x18	; 24
	.db #0x1f	; 31
	.db #0x1f	; 31
	.db #0x1f	; 31
	.db #0x0e	; 14
	.db #0x0f	; 15
	.db #0x01	; 1
	.db #0x01	; 1
	.db #0xe0	; 224
	.db #0xe0	; 224
	.db #0x18	; 24
	.db #0xf8	; 248
	.db #0xe4	; 228
	.db #0xfc	; 252
	.db #0xfe	; 254
	.db #0xfa	; 250
	.db #0xfc	; 252
	.db #0xe4	; 228
	.db #0x78	; 120	'x'
	.db #0x18	; 24
	.db #0x78	; 120	'x'
	.db #0xf8	; 248
	.db #0x38	; 56	'8'
	.db #0xf8	; 248
	.db #0x1c	; 28
	.db #0xfc	; 252
	.db #0x14	; 20
	.db #0xfc	; 252
	.db #0x12	; 18
	.db #0xfe	; 254
	.db #0x32	; 50	'2'
	.db #0x7e	; 126
	.db #0x7c	; 124
	.db #0xf4	; 244
	.db #0xd4	; 212
	.db #0xec	; 236
	.db #0x38	; 56	'8'
	.db #0xf8	; 248
	.db #0xc0	; 192
	.db #0xc0	; 192
	.db #0x00	; 0
	.db #0x00	; 0
	.db #0x00	; 0
	.db #0x00	; 0
	.db #0x1e	; 30
	.db #0x1e	; 30
	.db #0x1b	; 27
	.db #0x11	; 17
	.db #0x0d	; 13
	.db #0x08	; 8
	.db #0x0c	; 12
	.db #0x0a	; 10
	.db #0x0e	; 14
	.db #0x0a	; 10
	.db #0xfb	; 251
	.db #0xfd	; 253
	.db #0xb5	; 181
	.db #0xcf	; 207
	.db #0x5e	; 94
	.db #0x43	; 67	'C'
	.db #0x5f	; 95
	.db #0x59	; 89	'Y'
	.db #0x47	; 71	'G'
	.db #0x6d	; 109	'm'
	.db #0x2f	; 47
	.db #0x37	; 55	'7'
	.db #0x13	; 19
	.db #0x1f	; 31
	.db #0x0f	; 15
	.db #0x0f	; 15
	.db #0x01	; 1
	.db #0x01	; 1
	.db #0x00	; 0
	.db #0x00	; 0
	.db #0x00	; 0
	.db #0x00	; 0
	.db #0x00	; 0
	.db #0x00	; 0
	.db #0x00	; 0
	.db #0x00	; 0
	.db #0x80	; 128
	.db #0x80	; 128
	.db #0x40	; 64
	.db #0xc0	; 192
	.db #0xc0	; 192
	.db #0x40	; 64
	.db #0xa7	; 167
	.db #0x67	; 103	'g'
	.db #0xbb	; 187
	.db #0x7d	; 125
	.db #0xaf	; 175
	.db #0xf1	; 241
	.db #0xda	; 218
	.db #0xe2	; 226
	.db #0x9a	; 154
	.db #0xf2	; 242
	.db #0x24	; 36
	.db #0xf4	; 244
	.db #0xd8	; 216
	.db #0xe8	; 232
	.db #0xb0	; 176
	.db #0xf0	; 240
	.db #0xc0	; 192
	.db #0xc0	; 192
	.db #0xff	; 255
	.db #0x8f	; 143
	.db #0xff	; 255
	.db #0xc7	; 199
	.db #0xff	; 255
	.db #0xf8	; 248
	.db #0x7f	; 127
	.db #0x78	; 120	'x'
	.db #0x3f	; 63
	.db #0x3c	; 60
	.db #0x0f	; 15
	.db #0x0f	; 15
	.db #0x07	; 7
	.db #0x07	; 7
	.db #0x00	; 0
	.db #0x00	; 0
	.db #0xff	; 255
	.db #0xfe	; 254
	.db #0xff	; 255
	.db #0x7f	; 127
	.db #0xff	; 255
	.db #0xa7	; 167
	.db #0xff	; 255
	.db #0x66	; 102	'f'
	.db #0xff	; 255
	.db #0xff	; 255
	.db #0xff	; 255
	.db #0xff	; 255
	.db #0xff	; 255
	.db #0xff	; 255
	.db #0xff	; 255
	.db #0xff	; 255
	.db #0x3f	; 63
	.db #0x3f	; 63
	.db #0x67	; 103	'g'
	.db #0x7f	; 127
	.db #0x4d	; 77	'M'
	.db #0x7f	; 127
	.db #0x58	; 88	'X'
	.db #0x7f	; 127
	.db #0x70	; 112	'p'
	.db #0x7f	; 127
	.db #0x78	; 120	'x'
	.db #0x7f	; 127
	.db #0x0b	; 11
	.db #0x0f	; 15
	.db #0x0e	; 14
	.db #0x0e	; 14
	.db #0x00	; 0
	.db #0x00	; 0
	.db #0x00	; 0
	.db #0x00	; 0
	.db #0x01	; 1
	.db #0x01	; 1
	.db #0x03	; 3
	.db #0x02	; 2
	.db #0x05	; 5
	.db #0x04	; 4
	.db #0x0c	; 12
	.db #0x08	; 8
	.db #0x0f	; 15
	.db #0x08	; 8
	.db #0x1f	; 31
	.db #0x18	; 24
	.db #0x1f	; 31
	.db #0x19	; 25
	.db #0x3f	; 63
	.db #0x2c	; 44
	.db #0x4f	; 79	'O'
	.db #0x44	; 68	'D'
	.db #0x63	; 99	'c'
	.db #0x40	; 64
	.db #0xfe	; 254
	.db #0xc0	; 192
	.db #0xfc	; 252
	.db #0xf0	; 240
	.db #0xff	; 255
	.db #0xfc	; 252
	.db #0xff	; 255
	.db #0x9f	; 159
	.db #0x0f	; 15
	.db #0x0f	; 15
	.db #0x7c	; 124
	.db #0x70	; 112	'p'
	.db #0xf0	; 240
	.db #0xe0	; 224
	.db #0xe1	; 225
	.db #0xc0	; 192
	.db #0xe7	; 231
	.db #0xc0	; 192
	.db #0xbc	; 188
	.db #0x80	; 128
	.db #0xd8	; 216
	.db #0x00	; 0
	.db #0x39	; 57	'9'
	.db #0x00	; 0
	.db #0x9f	; 159
	.db #0x00	; 0
	.db #0xfc	; 252
	.db #0xe0	; 224
	.db #0xfe	; 254
	.db #0xf8	; 248
	.db #0xff	; 255
	.db #0x38	; 56	'8'
	.db #0x79	; 121	'y'
	.db #0x00	; 0
	.db #0x73	; 115	's'
	.db #0x60	; 96
	.db #0xff	; 255
	.db #0x37	; 55	'7'
	.db #0xff	; 255
	.db #0xfe	; 254
	.db #0xff	; 255
	.db #0x3f	; 63
	.db #0xff	; 255
	.db #0x3f	; 63
	.db #0xff	; 255
	.db #0xe7	; 231
	.db #0xff	; 255
	.db #0x7f	; 127
	.db #0xff	; 255
	.db #0xfe	; 254
	.db #0xff	; 255
	.db #0xc0	; 192
	.db #0xff	; 255
	.db #0xeb	; 235
	.db #0xff	; 255
	.db #0xff	; 255
	.db #0xfc	; 252
	.db #0xfc	; 252
	.db #0xfe	; 254
	.db #0xfe	; 254
	.db #0xf6	; 246
	.db #0xfe	; 254
	.db #0xb2	; 178
	.db #0xfe	; 254
	.db #0x9a	; 154
	.db #0xfe	; 254
	.db #0xde	; 222
	.db #0xfe	; 254
	.db #0xf0	; 240
	.db #0xf0	; 240
	.db #0x70	; 112	'p'
	.db #0x70	; 112	'p'
	.db #0xff	; 255
	.db #0xb3	; 179
	.db #0xff	; 255
	.db #0xe3	; 227
	.db #0xff	; 255
	.db #0xe3	; 227
	.db #0xfe	; 254
	.db #0xc6	; 198
	.db #0xfc	; 252
	.db #0x9c	; 156
	.db #0xf0	; 240
	.db #0xf0	; 240
	.db #0xe0	; 224
	.db #0xe0	; 224
	.db #0x00	; 0
	.db #0x00	; 0
	.db #0xf0	; 240
	.db #0xf0	; 240
	.db #0xfe	; 254
	.db #0x3e	; 62
	.db #0x9f	; 159
	.db #0x07	; 7
	.db #0x9f	; 159
	.db #0x0c	; 12
	.db #0xef	; 239
	.db #0x04	; 4
	.db #0xff	; 255
	.db #0x00	; 0
	.db #0xe7	; 231
	.db #0x02	; 2
	.db #0xcf	; 207
	.db #0x06	; 6
	.db #0xff	; 255
	.db #0x01	; 1
	.db #0x7f	; 127
	.db #0x07	; 7
	.db #0x7f	; 127
	.db #0x3f	; 63
	.db #0xff	; 255
	.db #0x1c	; 28
	.db #0xff	; 255
	.db #0x60	; 96
	.db #0xff	; 255
	.db #0x07	; 7
	.db #0xff	; 255
	.db #0xf9	; 249
	.db #0xff	; 255
	.db #0x7c	; 124
	.db #0x00	; 0
	.db #0x00	; 0
	.db #0x00	; 0
	.db #0x00	; 0
	.db #0x80	; 128
	.db #0x80	; 128
	.db #0xc0	; 192
	.db #0xc0	; 192
	.db #0xe0	; 224
	.db #0x60	; 96
	.db #0xf0	; 240
	.db #0x30	; 48	'0'
	.db #0xf0	; 240
	.db #0x30	; 48	'0'
	.db #0xf8	; 248
	.db #0x78	; 120	'x'
	.db #0xf8	; 248
	.db #0xf8	; 248
	.db #0xfc	; 252
	.db #0xfc	; 252
	.db #0xfe	; 254
	.db #0x7e	; 126
	.db #0xfe	; 254
	.db #0x7e	; 126
	.db #0xff	; 255
	.db #0xfb	; 251
	.db #0xff	; 255
	.db #0xe3	; 227
	.db #0xff	; 255
	.db #0xe7	; 231
	.db #0xff	; 255
	.db #0xff	; 255
	.db #0x00	; 0
	.db #0x00	; 0
	.db #0x01	; 1
	.db #0x01	; 1
	.db #0x00	; 0
	.db #0x01	; 1
	.db #0x00	; 0
	.db #0x01	; 1
	.db #0x3e	; 62
	.db #0x3f	; 63
	.db #0x20	; 32
	.db #0x33	; 51	'3'
	.db #0x40	; 64
	.db #0xe1	; 225
	.db #0x01	; 1
	.db #0x89	; 137
	.db #0x01	; 1
	.db #0x99	; 153
	.db #0x11	; 17
	.db #0xd7	; 215
	.db #0x91	; 145
	.db #0xff	; 255
	.db #0x90	; 144
	.db #0xff	; 255
	.db #0x90	; 144
	.db #0xff	; 255
	.db #0x90	; 144
	.db #0xff	; 255
	.db #0xff	; 255
	.db #0xff	; 255
	.db #0x00	; 0
	.db #0x00	; 0
	.db #0x00	; 0
	.db #0x00	; 0
	.db #0xff	; 255
	.db #0xff	; 255
	.db #0x01	; 1
	.db #0x39	; 57	'9'
	.db #0x01	; 1
	.db #0x01	; 1
	.db #0x01	; 1
	.db #0x01	; 1
	.db #0x01	; 1
	.db #0x03	; 3
	.db #0x01	; 1
	.db #0x43	; 67	'C'
	.db #0x01	; 1
	.db #0xff	; 255
	.db #0x01	; 1
	.db #0xff	; 255
	.db #0x61	; 97	'a'
	.db #0xff	; 255
	.db #0xff	; 255
	.db #0xff	; 255
	.db #0x11	; 17
	.db #0xff	; 255
	.db #0x11	; 17
	.db #0xff	; 255
	.db #0x11	; 17
	.db #0xff	; 255
	.db #0xff	; 255
	.db #0xff	; 255
	.db #0x00	; 0
	.db #0x00	; 0
	.db #0x03	; 3
	.db #0x03	; 3
	.db #0x04	; 4
	.db #0x06	; 6
	.db #0x1d	; 29
	.db #0x18	; 24
	.db #0x25	; 37
	.db #0x33	; 51	'3'
	.db #0x60	; 96
	.db #0x47	; 71	'G'
	.db #0x71	; 113	'q'
	.db #0x4e	; 78	'N'
	.db #0x60	; 96
	.db #0x7f	; 127
	.db #0x42	; 66	'B'
	.db #0x7d	; 125
	.db #0x64	; 100	'd'
	.db #0x7b	; 123
	.db #0x63	; 99	'c'
	.db #0x7c	; 124
	.db #0x80	; 128
	.db #0xff	; 255
	.db #0xac	; 172
	.db #0xf3	; 243
	.db #0x82	; 130
	.db #0xfc	; 252
	.db #0xb2	; 178
	.db #0xcd	; 205
	.db #0xc8	; 200
	.db #0xb7	; 183
	.db #0x7f	; 127
	.db #0x7f	; 127
	.db #0xc0	; 192
	.db #0xc0	; 192
	.db #0x20	; 32
	.db #0x60	; 96
	.db #0xb8	; 184
	.db #0x18	; 24
	.db #0xa4	; 164
	.db #0xcc	; 204
	.db #0x06	; 6
	.db #0xe2	; 226
	.db #0x8e	; 142
	.db #0x72	; 114	'r'
	.db #0x06	; 6
	.db #0xfe	; 254
	.db #0x42	; 66	'B'
	.db #0xbe	; 190
	.db #0x26	; 38
	.db #0xde	; 222
	.db #0xc6	; 198
	.db #0x3e	; 62
	.db #0x01	; 1
	.db #0xff	; 255
	.db #0x35	; 53	'5'
	.db #0xcf	; 207
	.db #0x41	; 65	'A'
	.db #0x3f	; 63
	.db #0x4d	; 77	'M'
	.db #0xb3	; 179
	.db #0x13	; 19
	.db #0xed	; 237
	.db #0xfe	; 254
	.db #0xfe	; 254
	.db #0x00	; 0
	.db #0x00	; 0
	.db #0x01	; 1
	.db #0x01	; 1
	.db #0x03	; 3
	.db #0x02	; 2
	.db #0x03	; 3
	.db #0x02	; 2
	.db #0x0c	; 12
	.db #0x0f	; 15
	.db #0x1c	; 28
	.db #0x13	; 19
	.db #0x2b	; 43
	.db #0x30	; 48	'0'
	.db #0x38	; 56	'8'
	.db #0x20	; 32
	.db #0x30	; 48	'0'
	.db #0x2c	; 44
	.db #0x62	; 98	'b'
	.db #0x4c	; 76	'L'
	.db #0xa7	; 167
	.db #0xc0	; 192
	.db #0xbe	; 190
	.db #0xc1	; 193
	.db #0x9e	; 158
	.db #0xe1	; 225
	.db #0x60	; 96
	.db #0x7f	; 127
	.db #0x4b	; 75	'K'
	.db #0x77	; 119	'w'
	.db #0x3c	; 60
	.db #0x3c	; 60
	.db #0xe0	; 224
	.db #0xe0	; 224
	.db #0xf8	; 248
	.db #0x18	; 24
	.db #0x38	; 56	'8'
	.db #0x08	; 8
	.db #0x5c	; 92
	.db #0x24	; 36
	.db #0xfc	; 252
	.db #0x04	; 4
	.db #0xd2	; 210
	.db #0x0e	; 14
	.db #0x79	; 121	'y'
	.db #0x07	; 7
	.db #0x4d	; 77	'M'
	.db #0x63	; 99	'c'
	.db #0x1f	; 31
	.db #0x63	; 99	'c'
	.db #0x19	; 25
	.db #0x07	; 7
	.db #0x9a	; 154
	.db #0x06	; 6
	.db #0xfc	; 252
	.db #0x04	; 4
	.db #0x32	; 50	'2'
	.db #0xce	; 206
	.db #0xc5	; 197
	.db #0xfb	; 251
	.db #0xe9	; 233
	.db #0xff	; 255
	.db #0x1e	; 30
	.db #0x1e	; 30
	.db #0x00	; 0
	.db #0x00	; 0
	.db #0x7f	; 127
	.db #0x7f	; 127
	.db #0x7f	; 127
	.db #0x40	; 64
	.db #0x60	; 96
	.db #0x5f	; 95
	.db #0x64	; 100	'd'
	.db #0x5b	; 91
	.db #0x69	; 105	'i'
	.db #0x56	; 86	'V'
	.db #0x40	; 64
	.db #0x5f	; 95
	.db #0x4f	; 79	'O'
	.db #0x40	; 64
	.db #0x5f	; 95
	.db #0x7f	; 127
	.db #0x52	; 82	'R'
	.db #0x7f	; 127
	.db #0x54	; 84	'T'
	.db #0x7f	; 127
	.db #0x59	; 89	'Y'
	.db #0x7f	; 127
	.db #0x52	; 82	'R'
	.db #0x7f	; 127
	.db #0x54	; 84	'T'
	.db #0x7f	; 127
	.db #0x7f	; 127
	.db #0x7f	; 127
	.db #0x00	; 0
	.db #0x00	; 0
	.db #0x00	; 0
	.db #0x00	; 0
	.db #0xfc	; 252
	.db #0xfc	; 252
	.db #0xfc	; 252
	.db #0x04	; 4
	.db #0x0c	; 12
	.db #0xf4	; 244
	.db #0x8c	; 140
	.db #0x74	; 116	't'
	.db #0x2c	; 44
	.db #0xd4	; 212
	.db #0x04	; 4
	.db #0xf4	; 244
	.db #0xe4	; 228
	.db #0x04	; 4
	.db #0xf4	; 244
	.db #0xfc	; 252
	.db #0x54	; 84	'T'
	.db #0xfc	; 252
	.db #0x94	; 148
	.db #0xfc	; 252
	.db #0x34	; 52	'4'
	.db #0xfc	; 252
	.db #0x54	; 84	'T'
	.db #0xfc	; 252
	.db #0x94	; 148
	.db #0xfc	; 252
	.db #0xfc	; 252
	.db #0xfc	; 252
	.db #0x00	; 0
	.db #0x00	; 0
	.db #0x80	; 128
	.db #0x00	; 0
	.db #0x06	; 6
	.db #0x00	; 0
	.db #0x02	; 2
	.db #0x00	; 0
	.db #0x30	; 48	'0'
	.db #0x00	; 0
	.db #0x09	; 9
	.db #0x00	; 0
	.db #0x09	; 9
	.db #0x00	; 0
	.db #0x44	; 68	'D'
	.db #0x00	; 0
	.db #0x04	; 4
	.db #0x00	; 0
	.db #0x00	; 0
	.db #0x00	; 0
	.db #0x81	; 129
	.db #0x00	; 0
	.db #0x61	; 97	'a'
	.db #0x00	; 0
	.db #0x79	; 121	'y'
	.db #0x00	; 0
	.db #0x49	; 73	'I'
	.db #0x00	; 0
	.db #0x6d	; 109	'm'
	.db #0x00	; 0
	.db #0x24	; 36
	.db #0x00	; 0
	.db #0x1c	; 28
	.db #0x00	; 0
	.db #0x28	; 40
	.db #0x00	; 0
	.db #0x00	; 0
	.db #0x00	; 0
	.db #0x79	; 121	'y'
	.db #0x00	; 0
	.db #0x91	; 145
	.db #0x00	; 0
	.db #0x63	; 99	'c'
	.db #0x00	; 0
	.db #0x82	; 130
	.db #0x00	; 0
	.db #0x00	; 0
	.db #0x00	; 0
	.db #0x71	; 113	'q'
	.db #0x00	; 0
	.db #0xd0	; 208
	.db #0x00	; 0
	.db #0xb4	; 180
	.db #0x00	; 0
	.db #0x22	; 34
	.db #0x00	; 0
	.db #0x42	; 66	'B'
	.db #0x00	; 0
	.db #0xd1	; 209
	.db #0x00	; 0
	.db #0x01	; 1
	.db #0x00	; 0
	.db #0x0c	; 12
	.db #0x00	; 0
	.db #0x68	; 104	'h'
	.db #0x00	; 0
	.db #0x00	; 0
	.db #0x00	; 0
	.db #0x00	; 0
	.db #0x07	; 7
	.db #0x00	; 0
	.db #0x18	; 24
	.db #0x01	; 1
	.db #0x26	; 38
	.db #0x06	; 6
	.db #0x29	; 41
	.db #0x02	; 2
	.db #0x5d	; 93
	.db #0x03	; 3
	.db #0x5c	; 92
	.db #0x04	; 4
	.db #0x5b	; 91
	.db #0x18	; 24
	.db #0x47	; 71	'G'
	.db #0x00	; 0
	.db #0x2f	; 47
	.db #0x0b	; 11
	.db #0x24	; 36
	.db #0x04	; 4
	.db #0x2b	; 43
	.db #0x04	; 4
	.db #0x13	; 19
	.db #0x04	; 4
	.db #0x13	; 19
	.db #0x02	; 2
	.db #0x15	; 21
	.db #0x01	; 1
	.db #0x16	; 22
	.db #0x00	; 0
	.db #0x00	; 0
	.db #0x00	; 0
	.db #0xf0	; 240
	.db #0x00	; 0
	.db #0x0e	; 14
	.db #0x30	; 48	'0'
	.db #0xc1	; 193
	.db #0x04	; 4
	.db #0xfa	; 250
	.db #0x04	; 4
	.db #0xfb	; 251
	.db #0x8e	; 142
	.db #0x71	; 113	'q'
	.db #0x73	; 115	's'
	.db #0x8c	; 140
	.db #0x20	; 32
	.db #0xdf	; 223
	.db #0xf0	; 240
	.db #0x0f	; 15
	.db #0x0f	; 15
	.db #0xf0	; 240
	.db #0x0c	; 12
	.db #0xf3	; 243
	.db #0x10	; 16
	.db #0xef	; 239
	.db #0x20	; 32
	.db #0xdf	; 223
	.db #0x71	; 113	'q'
	.db #0x8e	; 142
	.db #0x8f	; 143
	.db #0x70	; 112	'p'
	.db #0x01	; 1
	.db #0x16	; 22
	.db #0x06	; 6
	.db #0x11	; 17
	.db #0x04	; 4
	.db #0x2b	; 43
	.db #0x08	; 8
	.db #0xd7	; 215
	.db #0x30	; 48	'0'
	.db #0x0f	; 15
	.db #0xf0	; 240
	.db #0x0f	; 15
	.db #0x0f	; 15
	.db #0xf0	; 240
	.db #0x04	; 4
	.db #0xfb	; 251
	.db #0xce	; 206
	.db #0x31	; 49	'1'
	.db #0x71	; 113	'q'
	.db #0x8e	; 142
	.db #0x20	; 32
	.db #0xdf	; 223
	.db #0x20	; 32
	.db #0x1f	; 31
	.db #0x1c	; 28
	.db #0xc3	; 195
	.db #0x03	; 3
	.db #0x2c	; 44
	.db #0x03	; 3
	.db #0x14	; 20
	.db #0x01	; 1
	.db #0x16	; 22
	.db #0x80	; 128
	.db #0x68	; 104	'h'
	.db #0x40	; 64
	.db #0xa8	; 168
	.db #0x20	; 32
	.db #0xd4	; 212
	.db #0x20	; 32
	.db #0xdb	; 219
	.db #0x20	; 32
	.db #0xdc	; 220
	.db #0xdf	; 223
	.db #0x20	; 32
	.db #0x08	; 8
	.db #0xf7	; 247
	.db #0x18	; 24
	.db #0xe7	; 231
	.db #0x25	; 37
	.db #0xda	; 218
	.db #0xc6	; 198
	.db #0x39	; 57	'9'
	.db #0x44	; 68	'D'
	.db #0xbb	; 187
	.db #0x64	; 100	'd'
	.db #0x98	; 152
	.db #0x98	; 152
	.db #0x63	; 99	'c'
	.db #0x80	; 128
	.db #0x74	; 116	't'
	.db #0x00	; 0
	.db #0xe8	; 232
	.db #0x00	; 0
	.db #0xe8	; 232
	.db #0x61	; 97	'a'
	.db #0x9e	; 158
	.db #0xc3	; 195
	.db #0x3c	; 60
	.db #0x3e	; 62
	.db #0xc1	; 193
	.db #0x12	; 18
	.db #0xed	; 237
	.db #0x11	; 17
	.db #0xee	; 238
	.db #0x11	; 17
	.db #0xee	; 238
	.db #0x61	; 97	'a'
	.db #0x9e	; 158
	.db #0xe2	; 226
	.db #0x1d	; 29
	.db #0x32	; 50	'2'
	.db #0xcd	; 205
	.db #0x0e	; 14
	.db #0xf1	; 241
	.db #0x09	; 9
	.db #0xf6	; 246
	.db #0x10	; 16
	.db #0xef	; 239
	.db #0x30	; 48	'0'
	.db #0xcf	; 207
	.db #0xdf	; 223
	.db #0x20	; 32
	.db #0x22	; 34
	.db #0xdd	; 221
	.db #0x21	; 33
	.db #0xde	; 222
	.db #0x23	; 35
	.db #0xdc	; 220
	.db #0x21	; 33
	.db #0xde	; 222
	.db #0x31	; 49	'1'
	.db #0xce	; 206
	.db #0x31	; 49	'1'
	.db #0xce	; 206
	.db #0x4a	; 74	'J'
	.db #0xb5	; 181
	.db #0xc6	; 198
	.db #0x39	; 57	'9'
	.db #0x42	; 66	'B'
	.db #0xbd	; 189
	.db #0x41	; 65	'A'
	.db #0xbe	; 190
	.db #0x21	; 33
	.db #0xde	; 222
	.db #0x22	; 34
	.db #0xdd	; 221
	.db #0x1c	; 28
	.db #0xe3	; 227
	.db #0xa2	; 162
	.db #0x5d	; 93
	.db #0xe3	; 227
	.db #0x1c	; 28
	.db #0x22	; 34
	.db #0xdd	; 221
	.db #0x3c	; 60
	.db #0xc3	; 195
	.db #0x26	; 38
	.db #0xd9	; 217
	.db #0x00	; 0
	.db #0x00	; 0
	.db #0x00	; 0
	.db #0x07	; 7
	.db #0x00	; 0
	.db #0xd8	; 216
	.db #0x02	; 2
	.db #0x25	; 37
	.db #0x11	; 17
	.db #0xce	; 206
	.db #0x11	; 17
	.db #0xee	; 238
	.db #0x61	; 97	'a'
	.db #0x9e	; 158
	.db #0xe2	; 226
	.db #0x1d	; 29
	.db #0x00	; 0
	.db #0x00	; 0
	.db #0x00	; 0
	.db #0xe0	; 224
	.db #0x00	; 0
	.db #0x1b	; 27
	.db #0x20	; 32
	.db #0xc4	; 196
	.db #0x48	; 72	'H'
	.db #0xb1	; 177
	.db #0xc6	; 198
	.db #0x39	; 57	'9'
	.db #0x42	; 66	'B'
	.db #0xbd	; 189
	.db #0x41	; 65	'A'
	.db #0xbe	; 190
	.db #0x20	; 32
	.db #0xd4	; 212
	.db #0x20	; 32
	.db #0xd4	; 212
	.db #0x20	; 32
	.db #0xc8	; 200
	.db #0x30	; 48	'0'
	.db #0xc4	; 196
	.db #0x40	; 64
	.db #0xb4	; 180
	.db #0xc0	; 192
	.db #0x3a	; 58
	.db #0x40	; 64
	.db #0xba	; 186
	.db #0x40	; 64
	.db #0xba	; 186
	.db #0x20	; 32
	.db #0xda	; 218
	.db #0x20	; 32
	.db #0xda	; 218
	.db #0x18	; 24
	.db #0xe2	; 226
	.db #0xa0	; 160
	.db #0x54	; 84	'T'
	.db #0xe0	; 224
	.db #0x14	; 20
	.db #0x20	; 32
	.db #0xc8	; 200
	.db #0x30	; 48	'0'
	.db #0xc4	; 196
	.db #0x20	; 32
	.db #0xd4	; 212
	.db #0x01	; 1
	.db #0x2e	; 46
	.db #0x03	; 3
	.db #0x2c	; 44
	.db #0x06	; 6
	.db #0x11	; 17
	.db #0x02	; 2
	.db #0x2d	; 45
	.db #0x01	; 1
	.db #0x2e	; 46
	.db #0x11	; 17
	.db #0x4e	; 78	'N'
	.db #0x01	; 1
	.db #0x5e	; 94
	.db #0x02	; 2
	.db #0x5d	; 93
	.db #0x12	; 18
	.db #0x4d	; 77	'M'
	.db #0x0e	; 14
	.db #0x51	; 81	'Q'
	.db #0x09	; 9
	.db #0x56	; 86	'V'
	.db #0x00	; 0
	.db #0x2f	; 47
	.db #0x00	; 0
	.db #0x2f	; 47
	.db #0x07	; 7
	.db #0x10	; 16
	.db #0x02	; 2
	.db #0x2d	; 45
	.db #0x01	; 1
	.db #0x2e	; 46
	.db #0x00	; 0
	.db #0x00	; 0
	.db #0x00	; 0
	.db #0x0f	; 15
	.db #0x00	; 0
	.db #0x70	; 112	'p'
	.db #0x01	; 1
	.db #0x80	; 128
	.db #0x06	; 6
	.db #0x09	; 9
	.db #0x22	; 34
	.db #0xdd	; 221
	.db #0x63	; 99	'c'
	.db #0x9c	; 156
	.db #0xa4	; 164
	.db #0x5b	; 91
	.db #0x18	; 24
	.db #0xe7	; 231
	.db #0x10	; 16
	.db #0xef	; 239
	.db #0xfb	; 251
	.db #0x04	; 4
	.db #0x44	; 68	'D'
	.db #0xbb	; 187
	.db #0x44	; 68	'D'
	.db #0xbb	; 187
	.db #0xc4	; 196
	.db #0x3b	; 59
	.db #0xba	; 186
	.db #0x45	; 69	'E'
	.db #0x11	; 17
	.db #0xee	; 238
	.db #0x00	; 0
	.db #0x00	; 0
	.db #0x00	; 0
	.db #0xe0	; 224
	.db #0x00	; 0
	.db #0x18	; 24
	.db #0x20	; 32
	.db #0xc4	; 196
	.db #0x00	; 0
	.db #0xf4	; 244
	.db #0x00	; 0
	.db #0xfa	; 250
	.db #0x88	; 136
	.db #0x72	; 114	'r'
	.db #0x70	; 112	'p'
	.db #0x8a	; 138
	.db #0x20	; 32
	.db #0xda	; 218
	.db #0xf0	; 240
	.db #0x04	; 4
	.db #0x00	; 0
	.db #0xf4	; 244
	.db #0x00	; 0
	.db #0xf4	; 244
	.db #0x00	; 0
	.db #0xe8	; 232
	.db #0x20	; 32
	.db #0xc8	; 200
	.db #0x60	; 96
	.db #0x88	; 136
	.db #0x80	; 128
	.db #0x68	; 104	'h'
	.db #0x00	; 0
	.db #0x17	; 23
	.db #0x00	; 0
	.db #0x17	; 23
	.db #0x01	; 1
	.db #0x16	; 22
	.db #0x01	; 1
	.db #0x16	; 22
	.db #0x06	; 6
	.db #0x29	; 41
	.db #0x02	; 2
	.db #0x2d	; 45
	.db #0x03	; 3
	.db #0x2c	; 44
	.db #0x04	; 4
	.db #0x5b	; 91
	.db #0x18	; 24
	.db #0x47	; 71	'G'
	.db #0x10	; 16
	.db #0x4f	; 79	'O'
	.db #0x1b	; 27
	.db #0x44	; 68	'D'
	.db #0x04	; 4
	.db #0x2b	; 43
	.db #0x04	; 4
	.db #0x23	; 35
	.db #0x00	; 0
	.db #0x18	; 24
	.db #0x00	; 0
	.db #0x07	; 7
	.db #0x00	; 0
	.db #0x00	; 0
	.db #0x82	; 130
	.db #0x7d	; 125
	.db #0xc3	; 195
	.db #0x3c	; 60
	.db #0xc5	; 197
	.db #0x3a	; 58
	.db #0x3c	; 60
	.db #0xc3	; 195
	.db #0x04	; 4
	.db #0xfb	; 251
	.db #0x04	; 4
	.db #0xfb	; 251
	.db #0x8e	; 142
	.db #0x71	; 113	'q'
	.db #0x73	; 115	's'
	.db #0x8c	; 140
	.db #0x20	; 32
	.db #0xdf	; 223
	.db #0xf0	; 240
	.db #0x0f	; 15
	.db #0x0f	; 15
	.db #0xf0	; 240
	.db #0x0c	; 12
	.db #0xf2	; 242
	.db #0x10	; 16
	.db #0xe1	; 225
	.db #0x00	; 0
	.db #0x0e	; 14
	.db #0x00	; 0
	.db #0xf0	; 240
	.db #0x00	; 0
	.db #0x00	; 0
	.db #0x20	; 32
	.db #0xdf	; 223
	.db #0x20	; 32
	.db #0xdf	; 223
	.db #0xd1	; 209
	.db #0x2e	; 46
	.db #0x39	; 57	'9'
	.db #0xc6	; 198
	.db #0x26	; 38
	.db #0xd9	; 217
	.db #0x22	; 34
	.db #0xdd	; 221
	.db #0x63	; 99	'c'
	.db #0x9c	; 156
	.db #0xa4	; 164
	.db #0x5b	; 91
	.db #0x18	; 24
	.db #0xe7	; 231
	.db #0x10	; 16
	.db #0xef	; 239
	.db #0xfb	; 251
	.db #0x04	; 4
	.db #0x04	; 4
	.db #0x0b	; 11
	.db #0x00	; 0
	.db #0x81	; 129
	.db #0x00	; 0
	.db #0x70	; 112	'p'
	.db #0x00	; 0
	.db #0x0f	; 15
	.db #0x00	; 0
	.db #0x00	; 0
	.db #0x80	; 128
	.db #0x68	; 104	'h'
	.db #0xc0	; 192
	.db #0x28	; 40
	.db #0xc0	; 192
	.db #0x28	; 40
	.db #0x20	; 32
	.db #0xc8	; 200
	.db #0x00	; 0
	.db #0xf4	; 244
	.db #0x00	; 0
	.db #0xf4	; 244
	.db #0x80	; 128
	.db #0x74	; 116	't'
	.db #0x70	; 112	'p'
	.db #0x8a	; 138
	.db #0x20	; 32
	.db #0xda	; 218
	.db #0xf0	; 240
	.db #0x0a	; 10
	.db #0x08	; 8
	.db #0xf2	; 242
	.db #0x00	; 0
	.db #0xf4	; 244
	.db #0x00	; 0
	.db #0xe4	; 228
	.db #0x00	; 0
	.db #0x18	; 24
	.db #0x00	; 0
	.db #0xe0	; 224
	.db #0x00	; 0
	.db #0x00	; 0
	.db #0x32	; 50	'2'
	.db #0xcd	; 205
	.db #0x0e	; 14
	.db #0xf1	; 241
	.db #0x09	; 9
	.db #0xf6	; 246
	.db #0x10	; 16
	.db #0xcf	; 207
	.db #0x00	; 0
	.db #0x27	; 39
	.db #0x00	; 0
	.db #0xd8	; 216
	.db #0x00	; 0
	.db #0x07	; 7
	.db #0x00	; 0
	.db #0x00	; 0
	.db #0x21	; 33
	.db #0xde	; 222
	.db #0x22	; 34
	.db #0xdd	; 221
	.db #0x1c	; 28
	.db #0xe3	; 227
	.db #0xa2	; 162
	.db #0x59	; 89	'Y'
	.db #0xe0	; 224
	.db #0x04	; 4
	.db #0x00	; 0
	.db #0x1b	; 27
	.db #0x00	; 0
	.db #0xe0	; 224
	.db #0x00	; 0
	.db #0x00	; 0
	.db #0x8f	; 143
	.db #0x00	; 0
	.db #0x88	; 136
	.db #0x00	; 0
	.db #0x88	; 136
	.db #0x00	; 0
	.db #0x88	; 136
	.db #0x00	; 0
	.db #0x88	; 136
	.db #0x00	; 0
	.db #0x88	; 136
	.db #0x00	; 0
	.db #0x88	; 136
	.db #0x00	; 0
	.db #0x88	; 136
	.db #0x00	; 0
	.db #0xf8	; 248
	.db #0x00	; 0
	.db #0x88	; 136
	.db #0x00	; 0
	.db #0x88	; 136
	.db #0x00	; 0
	.db #0x88	; 136
	.db #0x00	; 0
	.db #0x88	; 136
	.db #0x00	; 0
	.db #0x88	; 136
	.db #0x00	; 0
	.db #0x88	; 136
	.db #0x00	; 0
	.db #0x88	; 136
	.db #0x00	; 0
	.db #0xff	; 255
	.db #0x00	; 0
	.db #0x04	; 4
	.db #0x00	; 0
	.db #0x04	; 4
	.db #0x00	; 0
	.db #0x04	; 4
	.db #0x00	; 0
	.db #0xff	; 255
	.db #0x00	; 0
	.db #0x40	; 64
	.db #0x00	; 0
	.db #0x40	; 64
	.db #0x00	; 0
	.db #0x40	; 64
	.db #0x00	; 0
	.db #0x9f	; 159
	.db #0x9f	; 159
	.db #0x6c	; 108	'l'
	.db #0x6f	; 111	'o'
	.db #0x72	; 114	'r'
	.db #0x73	; 115	's'
	.db #0x8d	; 141
	.db #0x85	; 133
	.db #0xff	; 255
	.db #0x4a	; 74	'J'
	.db #0x80	; 128
	.db #0x83	; 131
	.db #0xfc	; 252
	.db #0x84	; 132
	.db #0xff	; 255
	.db #0x82	; 130
	.db #0xfd	; 253
	.db #0x82	; 130
	.db #0xf8	; 248
	.db #0x84	; 132
	.db #0xf8	; 248
	.db #0x84	; 132
	.db #0xfc	; 252
	.db #0x84	; 132
	.db #0x82	; 130
	.db #0xff	; 255
	.db #0xff	; 255
	.db #0xff	; 255
	.db #0xff	; 255
	.db #0x00	; 0
	.db #0x00	; 0
	.db #0xff	; 255
	.db #0xff	; 255
	.db #0xff	; 255
	.db #0x00	; 0
	.db #0xff	; 255
	.db #0x00	; 0
	.db #0xff	; 255
	.db #0x00	; 0
	.db #0xff	; 255
	.db #0xff	; 255
	.db #0x80	; 128
	.db #0x01	; 1
	.db #0x81	; 129
	.db #0x7f	; 127
	.db #0x41	; 65	'A'
	.db #0xff	; 255
	.db #0x81	; 129
	.db #0x7f	; 127
	.db #0x81	; 129
	.db #0x3f	; 63
	.db #0x41	; 65	'A'
	.db #0x3f	; 63
	.db #0x41	; 65	'A'
	.db #0x7f	; 127
	.db #0x41	; 65	'A'
	.db #0x81	; 129
	.db #0xff	; 255
	.db #0xff	; 255
	.db #0xff	; 255
	.db #0xff	; 255
	.db #0x00	; 0
	.db #0x00	; 0
	.db #0xff	; 255
	.db #0x00	; 0
	.db #0x00	; 0
	.db #0x00	; 0
	.db #0x00	; 0
	.db #0x00	; 0
	.db #0x00	; 0
	.db #0x00	; 0
	.db #0x00	; 0
	.db #0x00	; 0
	.db #0x00	; 0
	.db #0x00	; 0
	.db #0x00	; 0
	.db #0x00	; 0
	.db #0x00	; 0
	.db #0x00	; 0
	.db #0x00	; 0
_Tileset_2:
	.db #0x00	; 0
	.db #0x00	; 0
	.db #0x00	; 0
	.db #0x00	; 0
	.db #0x00	; 0
	.db #0x00	; 0
	.db #0x00	; 0
	.db #0x00	; 0
	.db #0x00	; 0
	.db #0x00	; 0
	.db #0x00	; 0
	.db #0x00	; 0
	.db #0x00	; 0
	.db #0x00	; 0
	.db #0x00	; 0
	.db #0x00	; 0
	.db #0x80	; 128
	.db #0x00	; 0
	.db #0x40	; 64
	.db #0x00	; 0
	.db #0x20	; 32
	.db #0x00	; 0
	.db #0x10	; 16
	.db #0x00	; 0
	.db #0x28	; 40
	.db #0x00	; 0
	.db #0x45	; 69	'E'
	.db #0x00	; 0
	.db #0x82	; 130
	.db #0x00	; 0
	.db #0x01	; 1
	.db #0x00	; 0
	.db #0x80	; 128
	.db #0x00	; 0
	.db #0x40	; 64
	.db #0x00	; 0
	.db #0x20	; 32
	.db #0x00	; 0
	.db #0x10	; 16
	.db #0x00	; 0
	.db #0x08	; 8
	.db #0x00	; 0
	.db #0x14	; 20
	.db #0x00	; 0
	.db #0x22	; 34
	.db #0x00	; 0
	.db #0x41	; 65	'A'
	.db #0x00	; 0
	.db #0x80	; 128
	.db #0x00	; 0
	.db #0x40	; 64
	.db #0x00	; 0
	.db #0x20	; 32
	.db #0x00	; 0
	.db #0x50	; 80	'P'
	.db #0x00	; 0
	.db #0x88	; 136
	.db #0x00	; 0
	.db #0x04	; 4
	.db #0x00	; 0
	.db #0x02	; 2
	.db #0x00	; 0
	.db #0x01	; 1
	.db #0x00	; 0
	.db #0x82	; 130
	.db #0x00	; 0
	.db #0x44	; 68	'D'
	.db #0x00	; 0
	.db #0x28	; 40
	.db #0x00	; 0
	.db #0x10	; 16
	.db #0x00	; 0
	.db #0x28	; 40
	.db #0x00	; 0
	.db #0x44	; 68	'D'
	.db #0x00	; 0
	.db #0x82	; 130
	.db #0x00	; 0
	.db #0x01	; 1
	.db #0x00	; 0
	.db #0xd4	; 212
	.db #0xaf	; 175
	.db #0xd4	; 212
	.db #0xaf	; 175
	.db #0xf4	; 244
	.db #0x8f	; 143
	.db #0xf4	; 244
	.db #0x8f	; 143
	.db #0xf5	; 245
	.db #0x8e	; 142
	.db #0xe5	; 229
	.db #0x9e	; 158
	.db #0xe5	; 229
	.db #0x9e	; 158
	.db #0xe4	; 228
	.db #0x9f	; 159
	.db #0xf4	; 244
	.db #0x8f	; 143
	.db #0xb4	; 180
	.db #0xcf	; 207
	.db #0xb4	; 180
	.db #0xcf	; 207
	.db #0xb4	; 180
	.db #0xcf	; 207
	.db #0xb4	; 180
	.db #0xcf	; 207
	.db #0xf4	; 244
	.db #0x8f	; 143
	.db #0xf5	; 245
	.db #0x8f	; 143
	.db #0xcf	; 207
	.db #0xff	; 255
	.db #0xff	; 255
	.db #0x00	; 0
	.db #0xff	; 255
	.db #0x00	; 0
	.db #0xff	; 255
	.db #0x00	; 0
	.db #0x00	; 0
	.db #0xff	; 255
	.db #0xef	; 239
	.db #0x10	; 16
	.db #0xef	; 239
	.db #0x10	; 16
	.db #0xef	; 239
	.db #0x10	; 16
	.db #0x00	; 0
	.db #0xff	; 255
	.db #0xff	; 255
	.db #0x00	; 0
	.db #0xff	; 255
	.db #0x00	; 0
	.db #0xff	; 255
	.db #0x00	; 0
	.db #0x00	; 0
	.db #0xff	; 255
	.db #0xef	; 239
	.db #0x10	; 16
	.db #0x00	; 0
	.db #0xff	; 255
	.db #0xff	; 255
	.db #0xff	; 255
	.db #0xff	; 255
	.db #0xff	; 255
	.db #0xdf	; 223
	.db #0x20	; 32
	.db #0xdf	; 223
	.db #0x20	; 32
	.db #0xdf	; 223
	.db #0x20	; 32
	.db #0x00	; 0
	.db #0xff	; 255
	.db #0xff	; 255
	.db #0x00	; 0
	.db #0xff	; 255
	.db #0x00	; 0
	.db #0xff	; 255
	.db #0x00	; 0
	.db #0x00	; 0
	.db #0xff	; 255
	.db #0xdf	; 223
	.db #0x20	; 32
	.db #0xdf	; 223
	.db #0x20	; 32
	.db #0xdf	; 223
	.db #0x20	; 32
	.db #0x00	; 0
	.db #0xff	; 255
	.db #0xff	; 255
	.db #0x00	; 0
	.db #0x00	; 0
	.db #0xff	; 255
	.db #0xff	; 255
	.db #0xff	; 255
	.db #0xff	; 255
	.db #0xff	; 255
	.db #0xab	; 171
	.db #0x75	; 117	'u'
	.db #0xab	; 171
	.db #0x75	; 117	'u'
	.db #0xaf	; 175
	.db #0x71	; 113	'q'
	.db #0x2f	; 47
	.db #0xf1	; 241
	.db #0x2f	; 47
	.db #0xf1	; 241
	.db #0x2f	; 47
	.db #0xf1	; 241
	.db #0x27	; 39
	.db #0xf9	; 249
	.db #0x27	; 39
	.db #0xf9	; 249
	.db #0xa7	; 167
	.db #0x79	; 121	'y'
	.db #0xaf	; 175
	.db #0x71	; 113	'q'
	.db #0xad	; 173
	.db #0x73	; 115	's'
	.db #0x2d	; 45
	.db #0xf3	; 243
	.db #0x2d	; 45
	.db #0xf3	; 243
	.db #0x2f	; 47
	.db #0xf1	; 241
	.db #0xaf	; 175
	.db #0xf1	; 241
	.db #0xf3	; 243
	.db #0xff	; 255
	.db #0xf7	; 247
	.db #0x8f	; 143
	.db #0xe4	; 228
	.db #0x9f	; 159
	.db #0xf5	; 245
	.db #0x8f	; 143
	.db #0xf7	; 247
	.db #0x8e	; 142
	.db #0xd7	; 215
	.db #0xac	; 172
	.db #0xd6	; 214
	.db #0xad	; 173
	.db #0xd5	; 213
	.db #0xaf	; 175
	.db #0xf6	; 246
	.db #0x8f	; 143
	.db #0xf4	; 244
	.db #0x8f	; 143
	.db #0xf4	; 244
	.db #0x8f	; 143
	.db #0xf4	; 244
	.db #0x8f	; 143
	.db #0xb4	; 180
	.db #0xcf	; 207
	.db #0xb5	; 181
	.db #0xce	; 206
	.db #0xb5	; 181
	.db #0xce	; 206
	.db #0xb5	; 181
	.db #0xce	; 206
	.db #0xf4	; 244
	.db #0x8f	; 143
	.db #0xff	; 255
	.db #0xff	; 255
	.db #0xe8	; 232
	.db #0x9f	; 159
	.db #0xd0	; 208
	.db #0x3f	; 63
	.db #0xa0	; 160
	.db #0x7f	; 127
	.db #0x40	; 64
	.db #0xff	; 255
	.db #0x8f	; 143
	.db #0xf0	; 240
	.db #0x1f	; 31
	.db #0xe0	; 224
	.db #0x00	; 0
	.db #0xff	; 255
	.db #0xff	; 255
	.db #0xff	; 255
	.db #0x00	; 0
	.db #0xff	; 255
	.db #0x00	; 0
	.db #0xff	; 255
	.db #0x00	; 0
	.db #0xff	; 255
	.db #0xef	; 239
	.db #0x10	; 16
	.db #0xef	; 239
	.db #0x10	; 16
	.db #0xef	; 239
	.db #0x10	; 16
	.db #0x00	; 0
	.db #0xff	; 255
	.db #0xff	; 255
	.db #0x00	; 0
	.db #0xff	; 255
	.db #0x00	; 0
	.db #0xff	; 255
	.db #0x00	; 0
	.db #0x00	; 0
	.db #0xff	; 255
	.db #0xef	; 239
	.db #0x10	; 16
	.db #0xef	; 239
	.db #0x10	; 16
	.db #0xef	; 239
	.db #0x10	; 16
	.db #0x00	; 0
	.db #0xff	; 255
	.db #0xff	; 255
	.db #0xff	; 255
	.db #0x00	; 0
	.db #0xff	; 255
	.db #0x00	; 0
	.db #0xff	; 255
	.db #0x00	; 0
	.db #0xff	; 255
	.db #0xff	; 255
	.db #0x00	; 0
	.db #0xff	; 255
	.db #0x00	; 0
	.db #0xff	; 255
	.db #0x00	; 0
	.db #0x00	; 0
	.db #0xff	; 255
	.db #0xef	; 239
	.db #0x10	; 16
	.db #0xef	; 239
	.db #0x10	; 16
	.db #0xef	; 239
	.db #0x10	; 16
	.db #0x00	; 0
	.db #0xff	; 255
	.db #0xff	; 255
	.db #0x00	; 0
	.db #0xff	; 255
	.db #0x00	; 0
	.db #0xff	; 255
	.db #0x00	; 0
	.db #0x00	; 0
	.db #0xff	; 255
	.db #0xff	; 255
	.db #0xff	; 255
	.db #0x17	; 23
	.db #0xf9	; 249
	.db #0x0b	; 11
	.db #0xfc	; 252
	.db #0x05	; 5
	.db #0xfe	; 254
	.db #0xe2	; 226
	.db #0x1f	; 31
	.db #0xf1	; 241
	.db #0x0f	; 15
	.db #0xfc	; 252
	.db #0x03	; 3
	.db #0x00	; 0
	.db #0xff	; 255
	.db #0xdf	; 223
	.db #0x20	; 32
	.db #0xdf	; 223
	.db #0x20	; 32
	.db #0xdf	; 223
	.db #0x20	; 32
	.db #0x00	; 0
	.db #0xff	; 255
	.db #0xff	; 255
	.db #0x00	; 0
	.db #0xff	; 255
	.db #0x00	; 0
	.db #0xff	; 255
	.db #0x00	; 0
	.db #0x00	; 0
	.db #0xff	; 255
	.db #0xef	; 239
	.db #0xf1	; 241
	.db #0x27	; 39
	.db #0xf9	; 249
	.db #0xaf	; 175
	.db #0xf1	; 241
	.db #0xef	; 239
	.db #0x71	; 113	'q'
	.db #0xeb	; 235
	.db #0x35	; 53	'5'
	.db #0x6b	; 107	'k'
	.db #0xb5	; 181
	.db #0xab	; 171
	.db #0xf5	; 245
	.db #0x6f	; 111	'o'
	.db #0xf1	; 241
	.db #0xaf	; 175
	.db #0x71	; 113	'q'
	.db #0xaf	; 175
	.db #0x71	; 113	'q'
	.db #0xaf	; 175
	.db #0x71	; 113	'q'
	.db #0x2d	; 45
	.db #0xf3	; 243
	.db #0x2d	; 45
	.db #0xf3	; 243
	.db #0x2d	; 45
	.db #0xf3	; 243
	.db #0x2d	; 45
	.db #0xf3	; 243
	.db #0x2f	; 47
	.db #0xf1	; 241
	.db #0xf7	; 247
	.db #0x8f	; 143
	.db #0xe4	; 228
	.db #0x9f	; 159
	.db #0xf5	; 245
	.db #0x8f	; 143
	.db #0xf7	; 247
	.db #0x8e	; 142
	.db #0xd7	; 215
	.db #0xac	; 172
	.db #0xd6	; 214
	.db #0xad	; 173
	.db #0xd5	; 213
	.db #0xaf	; 175
	.db #0xf6	; 246
	.db #0x8f	; 143
	.db #0xf4	; 244
	.db #0x8f	; 143
	.db #0xf4	; 244
	.db #0x8f	; 143
	.db #0xf4	; 244
	.db #0x8f	; 143
	.db #0xb4	; 180
	.db #0xcf	; 207
	.db #0xb5	; 181
	.db #0xce	; 206
	.db #0xb5	; 181
	.db #0xce	; 206
	.db #0xb5	; 181
	.db #0xce	; 206
	.db #0xf4	; 244
	.db #0x8f	; 143
	.db #0xff	; 255
	.db #0xff	; 255
	.db #0xe8	; 232
	.db #0x9f	; 159
	.db #0xd0	; 208
	.db #0x3f	; 63
	.db #0xa0	; 160
	.db #0x7f	; 127
	.db #0x40	; 64
	.db #0xff	; 255
	.db #0x8f	; 143
	.db #0xf0	; 240
	.db #0x1f	; 31
	.db #0xe0	; 224
	.db #0x00	; 0
	.db #0xff	; 255
	.db #0xff	; 255
	.db #0xff	; 255
	.db #0xff	; 255
	.db #0xff	; 255
	.db #0xff	; 255
	.db #0xff	; 255
	.db #0xff	; 255
	.db #0xff	; 255
	.db #0xff	; 255
	.db #0xff	; 255
	.db #0xff	; 255
	.db #0xff	; 255
	.db #0xff	; 255
	.db #0xff	; 255
	.db #0xff	; 255
	.db #0xff	; 255
	.db #0xff	; 255
	.db #0xff	; 255
	.db #0xff	; 255
	.db #0xff	; 255
	.db #0xff	; 255
	.db #0xff	; 255
	.db #0xff	; 255
	.db #0xff	; 255
	.db #0xf8	; 248
	.db #0xff	; 255
	.db #0xf4	; 244
	.db #0xff	; 255
	.db #0xf3	; 243
	.db #0xfe	; 254
	.db #0xf3	; 243
	.db #0xfd	; 253
	.db #0xcf	; 207
	.db #0xbf	; 191
	.db #0xcf	; 207
	.db #0xbf	; 191
	.db #0xcf	; 207
	.db #0xbf	; 191
	.db #0xcf	; 207
	.db #0xbf	; 191
	.db #0xcf	; 207
	.db #0xbf	; 191
	.db #0xcf	; 207
	.db #0xbf	; 191
	.db #0xcf	; 207
	.db #0xbf	; 191
	.db #0xff	; 255
	.db #0xff	; 255
	.db #0xff	; 255
	.db #0xff	; 255
	.db #0xff	; 255
	.db #0x01	; 1
	.db #0x01	; 1
	.db #0xff	; 255
	.db #0x01	; 1
	.db #0xff	; 255
	.db #0xff	; 255
	.db #0xff	; 255
	.db #0xff	; 255
	.db #0xff	; 255
	.db #0xff	; 255
	.db #0xff	; 255
	.db #0xff	; 255
	.db #0xff	; 255
	.db #0xff	; 255
	.db #0xff	; 255
	.db #0xff	; 255
	.db #0xff	; 255
	.db #0xff	; 255
	.db #0xff	; 255
	.db #0xff	; 255
	.db #0xff	; 255
	.db #0x1f	; 31
	.db #0xff	; 255
	.db #0x2f	; 47
	.db #0xff	; 255
	.db #0xcf	; 207
	.db #0x7f	; 127
	.db #0xcf	; 207
	.db #0xbf	; 191
	.db #0xf3	; 243
	.db #0xfd	; 253
	.db #0xf3	; 243
	.db #0xfd	; 253
	.db #0xf3	; 243
	.db #0xfd	; 253
	.db #0xf3	; 243
	.db #0xfd	; 253
	.db #0xf3	; 243
	.db #0xfd	; 253
	.db #0xf3	; 243
	.db #0xfd	; 253
	.db #0xf3	; 243
	.db #0xfd	; 253
	.db #0xff	; 255
	.db #0xff	; 255
	.db #0xf3	; 243
	.db #0xfd	; 253
	.db #0xf3	; 243
	.db #0xfe	; 254
	.db #0xf4	; 244
	.db #0xff	; 255
	.db #0xf8	; 248
	.db #0xff	; 255
	.db #0xff	; 255
	.db #0xff	; 255
	.db #0xff	; 255
	.db #0xff	; 255
	.db #0xff	; 255
	.db #0xff	; 255
	.db #0xff	; 255
	.db #0xff	; 255
	.db #0xff	; 255
	.db #0xff	; 255
	.db #0xff	; 255
	.db #0xff	; 255
	.db #0xff	; 255
	.db #0xff	; 255
	.db #0xff	; 255
	.db #0xff	; 255
	.db #0x01	; 1
	.db #0xff	; 255
	.db #0x01	; 1
	.db #0xff	; 255
	.db #0xff	; 255
	.db #0x01	; 1
	.db #0xff	; 255
	.db #0xff	; 255
	.db #0xcf	; 207
	.db #0xbf	; 191
	.db #0xcf	; 207
	.db #0x7f	; 127
	.db #0x2f	; 47
	.db #0xff	; 255
	.db #0x1f	; 31
	.db #0xff	; 255
	.db #0xff	; 255
	.db #0xff	; 255
	.db #0xff	; 255
	.db #0xff	; 255
	.db #0xff	; 255
	.db #0xff	; 255
	.db #0xff	; 255
	.db #0xff	; 255
	.db #0xff	; 255
	.db #0xff	; 255
	.db #0xff	; 255
	.db #0xc1	; 193
	.db #0xe1	; 225
	.db #0xbf	; 191
	.db #0xd1	; 209
	.db #0xbf	; 191
	.db #0xcf	; 207
	.db #0xbf	; 191
	.db #0xcf	; 207
	.db #0xbf	; 191
	.db #0xcf	; 207
	.db #0xbf	; 191
	.db #0xff	; 255
	.db #0xff	; 255
	.db #0xcf	; 207
	.db #0xbf	; 191
	.db #0xcf	; 207
	.db #0xbf	; 191
	.db #0xcf	; 207
	.db #0xbf	; 191
	.db #0xcf	; 207
	.db #0xbf	; 191
	.db #0xd1	; 209
	.db #0xbf	; 191
	.db #0xe1	; 225
	.db #0xbf	; 191
	.db #0xff	; 255
	.db #0xc1	; 193
	.db #0xff	; 255
	.db #0xff	; 255
	.db #0xff	; 255
	.db #0xff	; 255
	.db #0xff	; 255
	.db #0x03	; 3
	.db #0x07	; 7
	.db #0xfd	; 253
	.db #0x0b	; 11
	.db #0xfd	; 253
	.db #0xf3	; 243
	.db #0xfd	; 253
	.db #0xf3	; 243
	.db #0xfd	; 253
	.db #0xf3	; 243
	.db #0xfd	; 253
	.db #0xff	; 255
	.db #0xff	; 255
	.db #0xf3	; 243
	.db #0xfd	; 253
	.db #0xf3	; 243
	.db #0xfd	; 253
	.db #0xf3	; 243
	.db #0xfd	; 253
	.db #0xf3	; 243
	.db #0xfd	; 253
	.db #0x0b	; 11
	.db #0xfd	; 253
	.db #0x07	; 7
	.db #0xfd	; 253
	.db #0xff	; 255
	.db #0x03	; 3
	.db #0xff	; 255
	.db #0xff	; 255
	.db #0xeb	; 235
	.db #0xf5	; 245
	.db #0xab	; 171
	.db #0x75	; 117	'u'
	.db #0xaf	; 175
	.db #0x71	; 113	'q'
	.db #0x2f	; 47
	.db #0xf1	; 241
	.db #0x2f	; 47
	.db #0xf1	; 241
	.db #0x2f	; 47
	.db #0xf1	; 241
	.db #0x27	; 39
	.db #0xf9	; 249
	.db #0x27	; 39
	.db #0xf9	; 249
	.db #0xf7	; 247
	.db #0x8f	; 143
	.db #0xf4	; 244
	.db #0x8f	; 143
	.db #0xf4	; 244
	.db #0x8f	; 143
	.db #0xb4	; 180
	.db #0xcf	; 207
	.db #0xb5	; 181
	.db #0xce	; 206
	.db #0xb5	; 181
	.db #0xce	; 206
	.db #0xb5	; 181
	.db #0xce	; 206
	.db #0xf4	; 244
	.db #0x8f	; 143
	.db #0xbf	; 191
	.db #0xa0	; 160
	.db #0x9f	; 159
	.db #0x93	; 147
	.db #0x9c	; 156
	.db #0x9c	; 156
	.db #0xd8	; 216
	.db #0xb3	; 179
	.db #0xd0	; 208
	.db #0xbf	; 191
	.db #0xd7	; 215
	.db #0xbf	; 191
	.db #0x98	; 152
	.db #0xf8	; 248
	.db #0xb0	; 176
	.db #0xe0	; 224
	.db #0xf0	; 240
	.db #0xc0	; 192
	.db #0x98	; 152
	.db #0xe0	; 224
	.db #0x87	; 135
	.db #0xf8	; 248
	.db #0x99	; 153
	.db #0xe0	; 224
	.db #0xb0	; 176
	.db #0xc0	; 192
	.db #0xb0	; 176
	.db #0xc0	; 192
	.db #0xb0	; 176
	.db #0xc0	; 192
	.db #0xb8	; 184
	.db #0xc0	; 192
	.db #0xdd	; 221
	.db #0x25	; 37
	.db #0xd9	; 217
	.db #0xe9	; 233
	.db #0x39	; 57	'9'
	.db #0x39	; 57	'9'
	.db #0x1b	; 27
	.db #0xcd	; 205
	.db #0x0b	; 11
	.db #0xfd	; 253
	.db #0xeb	; 235
	.db #0xfd	; 253
	.db #0x19	; 25
	.db #0x1f	; 31
	.db #0x0d	; 13
	.db #0x07	; 7
	.db #0x0f	; 15
	.db #0x03	; 3
	.db #0x19	; 25
	.db #0x07	; 7
	.db #0xe1	; 225
	.db #0x1f	; 31
	.db #0xd9	; 217
	.db #0x07	; 7
	.db #0x0d	; 13
	.db #0x03	; 3
	.db #0x0d	; 13
	.db #0x03	; 3
	.db #0x0d	; 13
	.db #0x03	; 3
	.db #0x0d	; 13
	.db #0x03	; 3
	.db #0xb6	; 182
	.db #0xc0	; 192
	.db #0xb0	; 176
	.db #0xc0	; 192
	.db #0xb0	; 176
	.db #0xc0	; 192
	.db #0xb0	; 176
	.db #0xc0	; 192
	.db #0xb0	; 176
	.db #0xc0	; 192
	.db #0xb0	; 176
	.db #0xc0	; 192
	.db #0xf0	; 240
	.db #0xc0	; 192
	.db #0xb8	; 184
	.db #0xa0	; 160
	.db #0x9f	; 159
	.db #0x93	; 147
	.db #0x9c	; 156
	.db #0x9c	; 156
	.db #0xd8	; 216
	.db #0xb3	; 179
	.db #0xd0	; 208
	.db #0xbf	; 191
	.db #0x90	; 144
	.db #0xff	; 255
	.db #0x9f	; 159
	.db #0xff	; 255
	.db #0x9f	; 159
	.db #0xff	; 255
	.db #0xe1	; 225
	.db #0xe0	; 224
	.db #0x0d	; 13
	.db #0x03	; 3
	.db #0x1d	; 29
	.db #0x03	; 3
	.db #0x1d	; 29
	.db #0x03	; 3
	.db #0x6d	; 109	'm'
	.db #0x03	; 3
	.db #0x0d	; 13
	.db #0x03	; 3
	.db #0x0d	; 13
	.db #0x03	; 3
	.db #0x0f	; 15
	.db #0x03	; 3
	.db #0x1d	; 29
	.db #0x05	; 5
	.db #0xf9	; 249
	.db #0xc9	; 201
	.db #0x39	; 57	'9'
	.db #0x39	; 57	'9'
	.db #0x1b	; 27
	.db #0xcd	; 205
	.db #0x0b	; 11
	.db #0xfd	; 253
	.db #0x09	; 9
	.db #0xff	; 255
	.db #0xf9	; 249
	.db #0xff	; 255
	.db #0xf9	; 249
	.db #0xff	; 255
	.db #0x07	; 7
	.db #0x07	; 7
	.db #0xdf	; 223
	.db #0xbf	; 191
	.db #0xbf	; 191
	.db #0xff	; 255
	.db #0xbf	; 191
	.db #0xff	; 255
	.db #0xbf	; 191
	.db #0xff	; 255
	.db #0xff	; 255
	.db #0xbf	; 191
	.db #0xff	; 255
	.db #0xbf	; 191
	.db #0xff	; 255
	.db #0x80	; 128
	.db #0xa0	; 160
	.db #0xdf	; 223
	.db #0x80	; 128
	.db #0xff	; 255
	.db #0xe0	; 224
	.db #0x9f	; 159
	.db #0xdf	; 223
	.db #0xbf	; 191
	.db #0xfe	; 254
	.db #0xbf	; 191
	.db #0xea	; 234
	.db #0xb7	; 183
	.db #0xf6	; 246
	.db #0xbf	; 191
	.db #0xfb	; 251
	.db #0xa6	; 166
	.db #0xf2	; 242
	.db #0xaf	; 175
	.db #0xfb	; 251
	.db #0xfd	; 253
	.db #0xfd	; 253
	.db #0xff	; 255
	.db #0xfd	; 253
	.db #0xff	; 255
	.db #0xfd	; 253
	.db #0xff	; 255
	.db #0xff	; 255
	.db #0xfd	; 253
	.db #0xff	; 255
	.db #0xfd	; 253
	.db #0xff	; 255
	.db #0x01	; 1
	.db #0x05	; 5
	.db #0xfb	; 251
	.db #0x01	; 1
	.db #0xff	; 255
	.db #0x07	; 7
	.db #0xf9	; 249
	.db #0xfb	; 251
	.db #0xfd	; 253
	.db #0x7f	; 127
	.db #0xfd	; 253
	.db #0x57	; 87	'W'
	.db #0xed	; 237
	.db #0x6f	; 111	'o'
	.db #0xfd	; 253
	.db #0xf7	; 247
	.db #0x4d	; 77	'M'
	.db #0x67	; 103	'g'
	.db #0xdd	; 221
	.db #0xff	; 255
	.db #0xbf	; 191
	.db #0xc0	; 192
	.db #0xbf	; 191
	.db #0xff	; 255
	.db #0x80	; 128
	.db #0xff	; 255
	.db #0xbf	; 191
	.db #0xe1	; 225
	.db #0xbe	; 190
	.db #0xe0	; 224
	.db #0xbf	; 191
	.db #0xff	; 255
	.db #0xbf	; 191
	.db #0xff	; 255
	.db #0x80	; 128
	.db #0xff	; 255
	.db #0xbf	; 191
	.db #0xa1	; 161
	.db #0xfe	; 254
	.db #0xe0	; 224
	.db #0xbf	; 191
	.db #0xbf	; 191
	.db #0xff	; 255
	.db #0x80	; 128
	.db #0xff	; 255
	.db #0x8c	; 140
	.db #0xff	; 255
	.db #0xad	; 173
	.db #0xff	; 255
	.db #0xff	; 255
	.db #0xff	; 255
	.db #0xff	; 255
	.db #0xfd	; 253
	.db #0x03	; 3
	.db #0xfd	; 253
	.db #0xff	; 255
	.db #0x01	; 1
	.db #0xff	; 255
	.db #0xfd	; 253
	.db #0x87	; 135
	.db #0x7d	; 125
	.db #0x87	; 135
	.db #0x7d	; 125
	.db #0xff	; 255
	.db #0xfd	; 253
	.db #0xff	; 255
	.db #0x01	; 1
	.db #0xff	; 255
	.db #0xfd	; 253
	.db #0x85	; 133
	.db #0x7f	; 127
	.db #0x87	; 135
	.db #0x7d	; 125
	.db #0xfd	; 253
	.db #0xff	; 255
	.db #0x01	; 1
	.db #0xff	; 255
	.db #0x31	; 49	'1'
	.db #0xff	; 255
	.db #0xb5	; 181
	.db #0xff	; 255
	.db #0xff	; 255
	.db #0xff	; 255
	.db #0xff	; 255
	.db #0x00	; 0
	.db #0xff	; 255
	.db #0x0c	; 12
	.db #0xf3	; 243
	.db #0x13	; 19
	.db #0x33	; 51	'3'
	.db #0xe0	; 224
	.db #0xfe	; 254
	.db #0x20	; 32
	.db #0x6f	; 111	'o'
	.db #0xc0	; 192
	.db #0xfe	; 254
	.db #0xc1	; 193
	.db #0xf7	; 247
	.db #0xc9	; 201
	.db #0xa3	; 163
	.db #0xde	; 222
	.db #0x8f	; 143
	.db #0xfc	; 252
	.db #0x53	; 83	'S'
	.db #0x7f	; 127
	.db #0x3c	; 60
	.db #0x2f	; 47
	.db #0x0a	; 10
	.db #0x03	; 3
	.db #0x15	; 21
	.db #0x01	; 1
	.db #0x27	; 39
	.db #0x07	; 7
	.db #0x4a	; 74	'J'
	.db #0x0f	; 15
	.db #0xff	; 255
	.db #0x30	; 48	'0'
	.db #0xff	; 255
	.db #0xcc	; 204
	.db #0xcf	; 207
	.db #0x02	; 2
	.db #0xde	; 222
	.db #0x03	; 3
	.db #0xfd	; 253
	.db #0x03	; 3
	.db #0xe5	; 229
	.db #0x1b	; 27
	.db #0x71	; 113	'q'
	.db #0x8f	; 143
	.db #0x83	; 131
	.db #0xff	; 255
	.db #0xfe	; 254
	.db #0x7e	; 126
	.db #0x54	; 84	'T'
	.db #0x1c	; 28
	.db #0x2c	; 44
	.db #0x3c	; 60
	.db #0xd8	; 216
	.db #0xf8	; 248
	.db #0x58	; 88	'X'
	.db #0xf0	; 240
	.db #0x34	; 52	'4'
	.db #0xf0	; 240
	.db #0x72	; 114	'r'
	.db #0xf0	; 240
	.db #0x71	; 113	'q'
	.db #0xf0	; 240
	.db #0x96	; 150
	.db #0x1f	; 31
	.db #0x5f	; 95
	.db #0x17	; 23
	.db #0x37	; 55	'7'
	.db #0x1b	; 27
	.db #0x1a	; 26
	.db #0x1c	; 28
	.db #0x2d	; 45
	.db #0x0e	; 14
	.db #0x49	; 73	'I'
	.db #0x0e	; 14
	.db #0x89	; 137
	.db #0x0e	; 14
	.db #0x07	; 7
	.db #0x07	; 7
	.db #0x68	; 104	'h'
	.db #0xf8	; 248
	.db #0x78	; 120	'x'
	.db #0xe8	; 232
	.db #0xe8	; 232
	.db #0xd8	; 216
	.db #0x58	; 88	'X'
	.db #0x38	; 56	'8'
	.db #0x38	; 56	'8'
	.db #0xf0	; 240
	.db #0x14	; 20
	.db #0xf0	; 240
	.db #0x12	; 18
	.db #0xf0	; 240
	.db #0xe1	; 225
	.db #0xe0	; 224
	.db #0xff	; 255
	.db #0xff	; 255
	.db #0xbf	; 191
	.db #0x80	; 128
	.db #0xbf	; 191
	.db #0x80	; 128
	.db #0xbf	; 191
	.db #0x80	; 128
	.db #0xbf	; 191
	.db #0x80	; 128
	.db #0xbf	; 191
	.db #0x80	; 128
	.db #0xbf	; 191
	.db #0x80	; 128
	.db #0xdf	; 223
	.db #0x80	; 128
	.db #0xe0	; 224
	.db #0x80	; 128
	.db #0xff	; 255
	.db #0xff	; 255
	.db #0xc3	; 195
	.db #0xfc	; 252
	.db #0x7f	; 127
	.db #0x7f	; 127
	.db #0x22	; 34
	.db #0x3e	; 62
	.db #0x5d	; 93
	.db #0x14	; 20
	.db #0x96	; 150
	.db #0x1c	; 28
	.db #0x1d	; 29
	.db #0x1c	; 28
	.db #0xff	; 255
	.db #0xff	; 255
	.db #0xfd	; 253
	.db #0x01	; 1
	.db #0xfd	; 253
	.db #0x01	; 1
	.db #0xfd	; 253
	.db #0x01	; 1
	.db #0xfd	; 253
	.db #0x01	; 1
	.db #0xfd	; 253
	.db #0x01	; 1
	.db #0xfd	; 253
	.db #0x01	; 1
	.db #0xfb	; 251
	.db #0x01	; 1
	.db #0x07	; 7
	.db #0x01	; 1
	.db #0xff	; 255
	.db #0xff	; 255
	.db #0xc3	; 195
	.db #0x3f	; 63
	.db #0xfe	; 254
	.db #0xfe	; 254
	.db #0xc4	; 196
	.db #0x7c	; 124
	.db #0x3c	; 60
	.db #0x28	; 40
	.db #0x2a	; 42
	.db #0x38	; 56	'8'
	.db #0x39	; 57	'9'
	.db #0x38	; 56	'8'
	.db #0xff	; 255
	.db #0xff	; 255
	.db #0x00	; 0
	.db #0xff	; 255
	.db #0x00	; 0
	.db #0xff	; 255
	.db #0x01	; 1
	.db #0xff	; 255
	.db #0xef	; 239
	.db #0x11	; 17
	.db #0xef	; 239
	.db #0x11	; 17
	.db #0xef	; 239
	.db #0x12	; 18
	.db #0x7a	; 122	'z'
	.db #0xfe	; 254
	.db #0xc6	; 198
	.db #0x8e	; 142
	.db #0xde	; 222
	.db #0x8e	; 142
	.db #0x9f	; 159
	.db #0xfe	; 254
	.db #0x76	; 118	'v'
	.db #0xff	; 255
	.db #0xf9	; 249
	.db #0xbf	; 191
	.db #0xff	; 255
	.db #0x80	; 128
	.db #0xff	; 255
	.db #0xff	; 255
	.db #0xff	; 255
	.db #0xff	; 255
	.db #0xff	; 255
	.db #0xff	; 255
	.db #0x00	; 0
	.db #0xff	; 255
	.db #0x1c	; 28
	.db #0xff	; 255
	.db #0xdc	; 220
	.db #0xf7	; 247
	.db #0xe3	; 227
	.db #0x76	; 118	'v'
	.db #0x4f	; 79	'O'
	.db #0xe2	; 226
	.db #0xfb	; 251
	.db #0x26	; 38
	.db #0x5a	; 90	'Z'
	.db #0x27	; 39
	.db #0xa3	; 163
	.db #0x7e	; 126
	.db #0x23	; 35
	.db #0xff	; 255
	.db #0x27	; 39
	.db #0xff	; 255
	.db #0x3d	; 61
	.db #0xff	; 255
	.db #0xe3	; 227
	.db #0xfd	; 253
	.db #0xff	; 255
	.db #0x01	; 1
	.db #0xff	; 255
	.db #0xff	; 255
	.db #0xff	; 255
	.db #0xff	; 255
	.db #0x80	; 128
	.db #0x00	; 0
	.db #0x40	; 64
	.db #0x00	; 0
	.db #0x20	; 32
	.db #0x00	; 0
	.db #0x1f	; 31
	.db #0x0f	; 15
	.db #0x3b	; 59
	.db #0x18	; 24
	.db #0x57	; 87	'W'
	.db #0x10	; 16
	.db #0x97	; 151
	.db #0x10	; 16
	.db #0x18	; 24
	.db #0x18	; 24
	.db #0x9c	; 156
	.db #0x17	; 23
	.db #0x5e	; 94
	.db #0x10	; 16
	.db #0x3c	; 60
	.db #0x17	; 23
	.db #0x11	; 17
	.db #0x1f	; 31
	.db #0x1e	; 30
	.db #0x16	; 22
	.db #0x1c	; 28
	.db #0x1c	; 28
	.db #0x22	; 34
	.db #0x00	; 0
	.db #0x41	; 65	'A'
	.db #0x00	; 0
	.db #0x82	; 130
	.db #0x00	; 0
	.db #0x44	; 68	'D'
	.db #0x00	; 0
	.db #0x28	; 40
	.db #0x00	; 0
	.db #0xf0	; 240
	.db #0xf0	; 240
	.db #0xd8	; 216
	.db #0x18	; 24
	.db #0xec	; 236
	.db #0x08	; 8
	.db #0xea	; 234
	.db #0x08	; 8
	.db #0x19	; 25
	.db #0x18	; 24
	.db #0x38	; 56	'8'
	.db #0xe8	; 232
	.db #0x78	; 120	'x'
	.db #0x08	; 8
	.db #0x38	; 56	'8'
	.db #0xe8	; 232
	.db #0x88	; 136
	.db #0xf8	; 248
	.db #0x78	; 120	'x'
	.db #0x68	; 104	'h'
	.db #0x7c	; 124
	.db #0x38	; 56	'8'
	.db #0x82	; 130
	.db #0x00	; 0
	.db #0x01	; 1
	.db #0x00	; 0
	.db #0x8f	; 143
	.db #0x0f	; 15
	.db #0x70	; 112	'p'
	.db #0x30	; 48	'0'
	.db #0x6f	; 111	'o'
	.db #0x40	; 64
	.db #0x5f	; 95
	.db #0x40	; 64
	.db #0xbf	; 191
	.db #0x80	; 128
	.db #0xbf	; 191
	.db #0x80	; 128
	.db #0xbf	; 191
	.db #0x80	; 128
	.db #0xbf	; 191
	.db #0x80	; 128
	.db #0xbf	; 191
	.db #0x80	; 128
	.db #0xbf	; 191
	.db #0x80	; 128
	.db #0xbf	; 191
	.db #0x80	; 128
	.db #0xbf	; 191
	.db #0x80	; 128
	.db #0xbf	; 191
	.db #0x80	; 128
	.db #0xbf	; 191
	.db #0x80	; 128
	.db #0xbf	; 191
	.db #0x80	; 128
	.db #0xbf	; 191
	.db #0x80	; 128
	.db #0xff	; 255
	.db #0xff	; 255
	.db #0x00	; 0
	.db #0x00	; 0
	.db #0xff	; 255
	.db #0x00	; 0
	.db #0xff	; 255
	.db #0x00	; 0
	.db #0xff	; 255
	.db #0x00	; 0
	.db #0xff	; 255
	.db #0x00	; 0
	.db #0xff	; 255
	.db #0x00	; 0
	.db #0xff	; 255
	.db #0x00	; 0
	.db #0xff	; 255
	.db #0x00	; 0
	.db #0xff	; 255
	.db #0x00	; 0
	.db #0xff	; 255
	.db #0x00	; 0
	.db #0xff	; 255
	.db #0x00	; 0
	.db #0xff	; 255
	.db #0x00	; 0
	.db #0xff	; 255
	.db #0x00	; 0
	.db #0xff	; 255
	.db #0x00	; 0
	.db #0xff	; 255
	.db #0x00	; 0
	.db #0xf2	; 242
	.db #0xf0	; 240
	.db #0x0c	; 12
	.db #0x0c	; 12
	.db #0xf6	; 246
	.db #0x02	; 2
	.db #0xfa	; 250
	.db #0x02	; 2
	.db #0xfd	; 253
	.db #0x01	; 1
	.db #0xfd	; 253
	.db #0x01	; 1
	.db #0xfd	; 253
	.db #0x01	; 1
	.db #0xfd	; 253
	.db #0x01	; 1
	.db #0xfd	; 253
	.db #0x01	; 1
	.db #0xfd	; 253
	.db #0x01	; 1
	.db #0xfd	; 253
	.db #0x01	; 1
	.db #0xfd	; 253
	.db #0x01	; 1
	.db #0xfd	; 253
	.db #0x01	; 1
	.db #0xfd	; 253
	.db #0x01	; 1
	.db #0xfd	; 253
	.db #0x01	; 1
	.db #0xfd	; 253
	.db #0x01	; 1
	.db #0xbf	; 191
	.db #0x80	; 128
	.db #0xbf	; 191
	.db #0x80	; 128
	.db #0xbf	; 191
	.db #0x80	; 128
	.db #0xbf	; 191
	.db #0x80	; 128
	.db #0xbf	; 191
	.db #0x80	; 128
	.db #0xdf	; 223
	.db #0x80	; 128
	.db #0xe0	; 224
	.db #0x80	; 128
	.db #0xff	; 255
	.db #0xff	; 255
	.db #0x80	; 128
	.db #0xff	; 255
	.db #0xff	; 255
	.db #0xff	; 255
	.db #0x42	; 66	'B'
	.db #0x7e	; 126
	.db #0x3c	; 60
	.db #0x24	; 36
	.db #0x3c	; 60
	.db #0x14	; 20
	.db #0x55	; 85	'U'
	.db #0x1c	; 28
	.db #0x9e	; 158
	.db #0x1c	; 28
	.db #0x01	; 1
	.db #0x00	; 0
	.db #0xff	; 255
	.db #0x00	; 0
	.db #0xff	; 255
	.db #0x00	; 0
	.db #0xff	; 255
	.db #0x00	; 0
	.db #0xff	; 255
	.db #0x00	; 0
	.db #0xff	; 255
	.db #0x00	; 0
	.db #0xff	; 255
	.db #0x00	; 0
	.db #0x3f	; 63
	.db #0x00	; 0
	.db #0xc0	; 192
	.db #0xc0	; 192
	.db #0x3f	; 63
	.db #0xff	; 255
	.db #0xc0	; 192
	.db #0xff	; 255
	.db #0x3f	; 63
	.db #0x3f	; 63
	.db #0x50	; 80	'P'
	.db #0x00	; 0
	.db #0x88	; 136
	.db #0x00	; 0
	.db #0x04	; 4
	.db #0x00	; 0
	.db #0x02	; 2
	.db #0x00	; 0
	.db #0x01	; 1
	.db #0x00	; 0
	.db #0xfd	; 253
	.db #0x01	; 1
	.db #0xfd	; 253
	.db #0x01	; 1
	.db #0xfd	; 253
	.db #0x01	; 1
	.db #0xfd	; 253
	.db #0x01	; 1
	.db #0xfd	; 253
	.db #0x01	; 1
	.db #0xfb	; 251
	.db #0x01	; 1
	.db #0x07	; 7
	.db #0x01	; 1
	.db #0xff	; 255
	.db #0xff	; 255
	.db #0x01	; 1
	.db #0xff	; 255
	.db #0xff	; 255
	.db #0xff	; 255
	.db #0x42	; 66	'B'
	.db #0x7e	; 126
	.db #0x7c	; 124
	.db #0x24	; 36
	.db #0xb8	; 184
	.db #0x28	; 40
	.db #0x2c	; 44
	.db #0x38	; 56	'8'
	.db #0x3a	; 58
	.db #0x38	; 56	'8'
	.db #0x01	; 1
	.db #0x00	; 0
	.db #0xff	; 255
	.db #0x00	; 0
	.db #0xff	; 255
	.db #0x00	; 0
	.db #0xff	; 255
	.db #0x00	; 0
	.db #0xff	; 255
	.db #0x00	; 0
	.db #0xff	; 255
	.db #0x00	; 0
	.db #0xff	; 255
	.db #0x00	; 0
	.db #0xfc	; 252
	.db #0x00	; 0
	.db #0x03	; 3
	.db #0x03	; 3
	.db #0xfc	; 252
	.db #0xff	; 255
	.db #0x03	; 3
	.db #0xff	; 255
	.db #0xfc	; 252
	.db #0xfc	; 252
	.db #0x10	; 16
	.db #0x00	; 0
	.db #0x28	; 40
	.db #0x00	; 0
	.db #0x45	; 69	'E'
	.db #0x00	; 0
	.db #0x82	; 130
	.db #0x00	; 0
	.db #0x01	; 1
	.db #0x00	; 0
	.db #0xff	; 255
	.db #0xff	; 255
	.db #0x07	; 7
	.db #0x07	; 7
	.db #0xf8	; 248
	.db #0x0c	; 12
	.db #0xf8	; 248
	.db #0x09	; 9
	.db #0xf8	; 248
	.db #0x0c	; 12
	.db #0xff	; 255
	.db #0x06	; 6
	.db #0xfd	; 253
	.db #0x06	; 6
	.db #0xfe	; 254
	.db #0x03	; 3
	.db #0xff	; 255
	.db #0x02	; 2
	.db #0xfe	; 254
	.db #0x04	; 4
	.db #0xfc	; 252
	.db #0x08	; 8
	.db #0xf8	; 248
	.db #0x10	; 16
	.db #0xf4	; 244
	.db #0x18	; 24
	.db #0xfb	; 251
	.db #0x0c	; 12
	.db #0xff	; 255
	.db #0x07	; 7
	.db #0xff	; 255
	.db #0x00	; 0
	.db #0xff	; 255
	.db #0xff	; 255
	.db #0xe0	; 224
	.db #0xe0	; 224
	.db #0x1f	; 31
	.db #0x30	; 48	'0'
	.db #0x1f	; 31
	.db #0x90	; 144
	.db #0x1f	; 31
	.db #0x30	; 48	'0'
	.db #0xff	; 255
	.db #0x60	; 96
	.db #0xbf	; 191
	.db #0x60	; 96
	.db #0x7f	; 127
	.db #0xc0	; 192
	.db #0xff	; 255
	.db #0x40	; 64
	.db #0xff	; 255
	.db #0x20	; 32
	.db #0x7f	; 127
	.db #0x10	; 16
	.db #0x6f	; 111	'o'
	.db #0x18	; 24
	.db #0xcf	; 207
	.db #0x38	; 56	'8'
	.db #0x9f	; 159
	.db #0x50	; 80	'P'
	.db #0xff	; 255
	.db #0xe0	; 224
	.db #0xff	; 255
	.db #0x00	; 0
	.db #0xff	; 255
	.db #0x00	; 0
	.db #0x80	; 128
	.db #0x00	; 0
	.db #0xbf	; 191
	.db #0x00	; 0
	.db #0xa0	; 160
	.db #0x00	; 0
	.db #0xa0	; 160
	.db #0x00	; 0
	.db #0xa0	; 160
	.db #0x00	; 0
	.db #0xa0	; 160
	.db #0x00	; 0
	.db #0xa0	; 160
	.db #0x00	; 0
	.db #0xa0	; 160
	.db #0x00	; 0
	.db #0xa0	; 160
	.db #0x00	; 0
	.db #0xa0	; 160
	.db #0x00	; 0
	.db #0xa0	; 160
	.db #0x00	; 0
	.db #0xa0	; 160
	.db #0x00	; 0
	.db #0xbf	; 191
	.db #0x00	; 0
	.db #0x80	; 128
	.db #0x00	; 0
	.db #0xff	; 255
	.db #0x00	; 0
	.db #0xff	; 255
	.db #0x00	; 0
	.db #0x01	; 1
	.db #0x00	; 0
	.db #0xfd	; 253
	.db #0x00	; 0
	.db #0x05	; 5
	.db #0x00	; 0
	.db #0x05	; 5
	.db #0x00	; 0
	.db #0x05	; 5
	.db #0x00	; 0
	.db #0x05	; 5
	.db #0x00	; 0
	.db #0x05	; 5
	.db #0x00	; 0
	.db #0x05	; 5
	.db #0x00	; 0
	.db #0x05	; 5
	.db #0x00	; 0
	.db #0x05	; 5
	.db #0x00	; 0
	.db #0x05	; 5
	.db #0x00	; 0
	.db #0x05	; 5
	.db #0x00	; 0
	.db #0xfd	; 253
	.db #0x00	; 0
	.db #0x01	; 1
	.db #0x00	; 0
	.db #0xff	; 255
	.db #0x00	; 0
	.db #0x00	; 0
	.db #0x00	; 0
	.db #0x7e	; 126
	.db #0x00	; 0
	.db #0x42	; 66	'B'
	.db #0x00	; 0
	.db #0x42	; 66	'B'
	.db #0x00	; 0
	.db #0x42	; 66	'B'
	.db #0x00	; 0
	.db #0x42	; 66	'B'
	.db #0x00	; 0
	.db #0x7e	; 126
	.db #0x00	; 0
	.db #0x00	; 0
	.db #0x00	; 0
	.db #0xff	; 255
	.db #0x00	; 0
	.db #0x81	; 129
	.db #0x00	; 0
	.db #0xbd	; 189
	.db #0x00	; 0
	.db #0xbd	; 189
	.db #0x00	; 0
	.db #0xbd	; 189
	.db #0x00	; 0
	.db #0xbd	; 189
	.db #0x00	; 0
	.db #0x81	; 129
	.db #0x00	; 0
	.db #0xff	; 255
	.db #0x00	; 0
	.db #0x00	; 0
	.db #0xff	; 255
	.db #0x07	; 7
	.db #0x80	; 128
	.db #0x00	; 0
	.db #0xbf	; 191
	.db #0x11	; 17
	.db #0xa0	; 160
	.db #0x15	; 21
	.db #0xa0	; 160
	.db #0x5d	; 93
	.db #0xa0	; 160
	.db #0x43	; 67	'C'
	.db #0xa0	; 160
	.db #0x4f	; 79	'O'
	.db #0xa0	; 160
	.db #0x4f	; 79	'O'
	.db #0xa0	; 160
	.db #0x43	; 67	'C'
	.db #0xa0	; 160
	.db #0x5d	; 93
	.db #0xa0	; 160
	.db #0x15	; 21
	.db #0xa0	; 160
	.db #0x11	; 17
	.db #0xa0	; 160
	.db #0x00	; 0
	.db #0xbf	; 191
	.db #0x07	; 7
	.db #0x80	; 128
	.db #0x00	; 0
	.db #0xff	; 255
	.db #0x00	; 0
	.db #0xff	; 255
	.db #0xe0	; 224
	.db #0x01	; 1
	.db #0x00	; 0
	.db #0xfd	; 253
	.db #0x88	; 136
	.db #0x05	; 5
	.db #0xa8	; 168
	.db #0x05	; 5
	.db #0xba	; 186
	.db #0x05	; 5
	.db #0xc2	; 194
	.db #0x05	; 5
	.db #0xf2	; 242
	.db #0x05	; 5
	.db #0xf2	; 242
	.db #0x05	; 5
	.db #0xc2	; 194
	.db #0x05	; 5
	.db #0xba	; 186
	.db #0x05	; 5
	.db #0xa8	; 168
	.db #0x05	; 5
	.db #0x88	; 136
	.db #0x05	; 5
	.db #0x00	; 0
	.db #0xfd	; 253
	.db #0xe0	; 224
	.db #0x01	; 1
	.db #0x00	; 0
	.db #0xff	; 255
	.db #0x80	; 128
	.db #0x00	; 0
	.db #0x7f	; 127
	.db #0x7f	; 127
	.db #0x7f	; 127
	.db #0x40	; 64
	.db #0x60	; 96
	.db #0x5f	; 95
	.db #0x64	; 100	'd'
	.db #0x5b	; 91
	.db #0x69	; 105	'i'
	.db #0x56	; 86	'V'
	.db #0x40	; 64
	.db #0x5f	; 95
	.db #0x4f	; 79	'O'
	.db #0x40	; 64
	.db #0xdf	; 223
	.db #0x7f	; 127
	.db #0x52	; 82	'R'
	.db #0x7f	; 127
	.db #0x54	; 84	'T'
	.db #0x7f	; 127
	.db #0x59	; 89	'Y'
	.db #0x7f	; 127
	.db #0x52	; 82	'R'
	.db #0x7f	; 127
	.db #0x54	; 84	'T'
	.db #0x7f	; 127
	.db #0xff	; 255
	.db #0x7f	; 127
	.db #0x01	; 1
	.db #0x00	; 0
	.db #0x82	; 130
	.db #0x00	; 0
	.db #0xfc	; 252
	.db #0xfc	; 252
	.db #0xfc	; 252
	.db #0x04	; 4
	.db #0x0c	; 12
	.db #0xf4	; 244
	.db #0x8c	; 140
	.db #0x74	; 116	't'
	.db #0x2c	; 44
	.db #0xd4	; 212
	.db #0x0e	; 14
	.db #0xf4	; 244
	.db #0xe5	; 229
	.db #0x04	; 4
	.db #0xf4	; 244
	.db #0xfc	; 252
	.db #0x54	; 84	'T'
	.db #0xfc	; 252
	.db #0x94	; 148
	.db #0xfc	; 252
	.db #0x34	; 52	'4'
	.db #0xfc	; 252
	.db #0x54	; 84	'T'
	.db #0xfc	; 252
	.db #0x94	; 148
	.db #0xfc	; 252
	.db #0xfe	; 254
	.db #0xfc	; 252
	.db #0x01	; 1
	.db #0x00	; 0
	.db #0xff	; 255
	.db #0xff	; 255
	.db #0x00	; 0
	.db #0xff	; 255
	.db #0x07	; 7
	.db #0xff	; 255
	.db #0x09	; 9
	.db #0xfe	; 254
	.db #0xf6	; 246
	.db #0x19	; 25
	.db #0xe8	; 232
	.db #0x36	; 54	'6'
	.db #0xf1	; 241
	.db #0x29	; 41
	.db #0x51	; 81	'Q'
	.db #0xe9	; 233
	.db #0xe1	; 225
	.db #0x51	; 81	'Q'
	.db #0xe1	; 225
	.db #0x51	; 81	'Q'
	.db #0xd0	; 208
	.db #0x68	; 104	'h'
	.db #0x30	; 48	'0'
	.db #0xe8	; 232
	.db #0xe8	; 232
	.db #0x36	; 54	'6'
	.db #0xf6	; 246
	.db #0x19	; 25
	.db #0xe9	; 233
	.db #0x1e	; 30
	.db #0x07	; 7
	.db #0xff	; 255
	.db #0xff	; 255
	.db #0xff	; 255
	.db #0x00	; 0
	.db #0xff	; 255
	.db #0xe0	; 224
	.db #0xff	; 255
	.db #0x90	; 144
	.db #0x7f	; 127
	.db #0x6f	; 111	'o'
	.db #0x98	; 152
	.db #0x17	; 23
	.db #0x6c	; 108	'l'
	.db #0x0f	; 15
	.db #0x14	; 20
	.db #0x0a	; 10
	.db #0x17	; 23
	.db #0x07	; 7
	.db #0x0a	; 10
	.db #0xe7	; 231
	.db #0xea	; 234
	.db #0x0b	; 11
	.db #0x16	; 22
	.db #0x0c	; 12
	.db #0x17	; 23
	.db #0x17	; 23
	.db #0x6c	; 108	'l'
	.db #0x6f	; 111	'o'
	.db #0x98	; 152
	.db #0x9f	; 159
	.db #0x70	; 112	'p'
	.db #0xe0	; 224
	.db #0xff	; 255
	.db #0x83	; 131
	.db #0x03	; 3
	.db #0x46	; 70	'F'
	.db #0x04	; 4
	.db #0x2e	; 46
	.db #0x09	; 9
	.db #0x1d	; 29
	.db #0x0b	; 11
	.db #0x0d	; 13
	.db #0x0b	; 11
	.db #0x1e	; 30
	.db #0x19	; 25
	.db #0x3e	; 62
	.db #0x1c	; 28
	.db #0x5b	; 91
	.db #0x1f	; 31
	.db #0x94	; 148
	.db #0x1b	; 27
	.db #0x56	; 86	'V'
	.db #0x18	; 24
	.db #0x3a	; 58
	.db #0x1c	; 28
	.db #0x14	; 20
	.db #0x1b	; 27
	.db #0x2e	; 46
	.db #0x08	; 8
	.db #0x4a	; 74	'J'
	.db #0x0c	; 12
	.db #0x84	; 132
	.db #0x07	; 7
	.db #0x03	; 3
	.db #0x03	; 3
	.db #0xc2	; 194
	.db #0xc0	; 192
	.db #0x64	; 100	'd'
	.db #0x20	; 32
	.db #0x78	; 120	'x'
	.db #0x90	; 144
	.db #0xb0	; 176
	.db #0xd0	; 208
	.db #0xb8	; 184
	.db #0xd0	; 208
	.db #0x7c	; 124
	.db #0x98	; 152
	.db #0x7a	; 122	'z'
	.db #0x38	; 56	'8'
	.db #0xd9	; 217
	.db #0xf8	; 248
	.db #0x08	; 8
	.db #0xf8	; 248
	.db #0xd8	; 216
	.db #0x38	; 56	'8'
	.db #0xb8	; 184
	.db #0x78	; 120	'x'
	.db #0x18	; 24
	.db #0xf8	; 248
	.db #0xd8	; 216
	.db #0x30	; 48	'0'
	.db #0xb4	; 180
	.db #0x70	; 112	'p'
	.db #0x62	; 98	'b'
	.db #0xe0	; 224
	.db #0xc1	; 193
	.db #0xc0	; 192
	.db #0xff	; 255
	.db #0x7f	; 127
	.db #0xa8	; 168
	.db #0xbf	; 191
	.db #0x9c	; 156
	.db #0xab	; 171
	.db #0x8f	; 143
	.db #0xa8	; 168
	.db #0xfc	; 252
	.db #0xab	; 171
	.db #0xa8	; 168
	.db #0xbf	; 191
	.db #0xa8	; 168
	.db #0xff	; 255
	.db #0xa8	; 168
	.db #0xff	; 255
	.db #0xf0	; 240
	.db #0x80	; 128
	.db #0xfd	; 253
	.db #0xfd	; 253
	.db #0xaa	; 170
	.db #0xfe	; 254
	.db #0xe8	; 232
	.db #0xbf	; 191
	.db #0xe9	; 233
	.db #0xbe	; 190
	.db #0xa8	; 168
	.db #0xff	; 255
	.db #0xbf	; 191
	.db #0xff	; 255
	.db #0xe1	; 225
	.db #0xe0	; 224
	.db #0xfe	; 254
	.db #0xfe	; 254
	.db #0x15	; 21
	.db #0xfd	; 253
	.db #0x39	; 57	'9'
	.db #0xd5	; 213
	.db #0x11	; 17
	.db #0x15	; 21
	.db #0x3f	; 63
	.db #0xd5	; 213
	.db #0x15	; 21
	.db #0xfd	; 253
	.db #0x15	; 21
	.db #0xff	; 255
	.db #0x15	; 21
	.db #0xff	; 255
	.db #0x01	; 1
	.db #0x01	; 1
	.db #0xbf	; 191
	.db #0xbf	; 191
	.db #0x55	; 85	'U'
	.db #0x77	; 119	'w'
	.db #0x17	; 23
	.db #0xf5	; 245
	.db #0x97	; 151
	.db #0x75	; 117	'u'
	.db #0x15	; 21
	.db #0xf7	; 247
	.db #0xfd	; 253
	.db #0xff	; 255
	.db #0x07	; 7
	.db #0x07	; 7
	.db #0xff	; 255
	.db #0xff	; 255
	.db #0x00	; 0
	.db #0xff	; 255
	.db #0x7f	; 127
	.db #0xff	; 255
	.db #0x7f	; 127
	.db #0xc0	; 192
	.db #0xe0	; 224
	.db #0x5f	; 95
	.db #0xe2	; 226
	.db #0x51	; 81	'Q'
	.db #0xe4	; 228
	.db #0x50	; 80	'P'
	.db #0x61	; 97	'a'
	.db #0xd0	; 208
	.db #0xe1	; 225
	.db #0x50	; 80	'P'
	.db #0xe0	; 224
	.db #0x50	; 80	'P'
	.db #0xe0	; 224
	.db #0x50	; 80	'P'
	.db #0x60	; 96
	.db #0xd0	; 208
	.db #0xe3	; 227
	.db #0x50	; 80	'P'
	.db #0xe0	; 224
	.db #0x5f	; 95
	.db #0xff	; 255
	.db #0x40	; 64
	.db #0x7f	; 127
	.db #0xff	; 255
	.db #0xff	; 255
	.db #0xff	; 255
	.db #0x00	; 0
	.db #0xff	; 255
	.db #0xfe	; 254
	.db #0xff	; 255
	.db #0xfe	; 254
	.db #0x03	; 3
	.db #0x07	; 7
	.db #0xfa	; 250
	.db #0x57	; 87	'W'
	.db #0x8a	; 138
	.db #0xa7	; 167
	.db #0x5a	; 90	'Z'
	.db #0x06	; 6
	.db #0xeb	; 235
	.db #0x07	; 7
	.db #0xaa	; 170
	.db #0x07	; 7
	.db #0xaa	; 170
	.db #0x17	; 23
	.db #0x2a	; 42
	.db #0xb6	; 182
	.db #0x4b	; 75	'K'
	.db #0xf7	; 247
	.db #0x0a	; 10
	.db #0x07	; 7
	.db #0xfa	; 250
	.db #0xff	; 255
	.db #0x02	; 2
	.db #0xfe	; 254
	.db #0xff	; 255
	.db #0xff	; 255
	.db #0xff	; 255
	.db #0x00	; 0
	.db #0xff	; 255
	.db #0x7f	; 127
	.db #0xff	; 255
	.db #0x7c	; 124
	.db #0xc0	; 192
	.db #0xff	; 255
	.db #0x7f	; 127
	.db #0xff	; 255
	.db #0x20	; 32
	.db #0xe1	; 225
	.db #0x20	; 32
	.db #0x21	; 33
	.db #0xe0	; 224
	.db #0xff	; 255
	.db #0x20	; 32
	.db #0xff	; 255
	.db #0x20	; 32
	.db #0xe1	; 225
	.db #0x20	; 32
	.db #0x11	; 17
	.db #0xf0	; 240
	.db #0xe9	; 233
	.db #0x18	; 24
	.db #0xef	; 239
	.db #0x16	; 22
	.db #0xef	; 239
	.db #0x11	; 17
	.db #0x00	; 0
	.db #0xff	; 255
	.db #0xff	; 255
	.db #0xff	; 255
	.db #0x00	; 0
	.db #0xff	; 255
	.db #0xfe	; 254
	.db #0xff	; 255
	.db #0x1e	; 30
	.db #0x03	; 3
	.db #0xff	; 255
	.db #0xfe	; 254
	.db #0xff	; 255
	.db #0x04	; 4
	.db #0x87	; 135
	.db #0x04	; 4
	.db #0x84	; 132
	.db #0x07	; 7
	.db #0xff	; 255
	.db #0x04	; 4
	.db #0xff	; 255
	.db #0x04	; 4
	.db #0x87	; 135
	.db #0x04	; 4
	.db #0x88	; 136
	.db #0x0f	; 15
	.db #0x9f	; 159
	.db #0x10	; 16
	.db #0xff	; 255
	.db #0x60	; 96
	.db #0xff	; 255
	.db #0x80	; 128
	.db #0x00	; 0
	.db #0xff	; 255
	.db #0xff	; 255
	.db #0xff	; 255
	.db #0x00	; 0
	.db #0x00	; 0
	.db #0xff	; 255
	.db #0x03	; 3
	.db #0xfc	; 252
	.db #0x0f	; 15
	.db #0xf3	; 243
	.db #0x17	; 23
	.db #0xe3	; 227
	.db #0x28	; 40
	.db #0xe8	; 232
	.db #0x29	; 41
	.db #0xf7	; 247
	.db #0x2c	; 44
	.db #0xfb	; 251
	.db #0x1c	; 28
	.db #0xfa	; 250
	.db #0x0c	; 12
	.db #0xf8	; 248
	.db #0x0c	; 12
	.db #0xf4	; 244
	.db #0x18	; 24
	.db #0xf3	; 243
	.db #0x1c	; 28
	.db #0xff	; 255
	.db #0x0f	; 15
	.db #0x3f	; 63
	.db #0x00	; 0
	.db #0xc0	; 192
	.db #0xc0	; 192
	.db #0xff	; 255
	.db #0xff	; 255
	.db #0x00	; 0
	.db #0x00	; 0
	.db #0xff	; 255
	.db #0xc0	; 192
	.db #0x3f	; 63
	.db #0xf0	; 240
	.db #0xcf	; 207
	.db #0xe8	; 232
	.db #0xc7	; 199
	.db #0x14	; 20
	.db #0x17	; 23
	.db #0x94	; 148
	.db #0xef	; 239
	.db #0x34	; 52	'4'
	.db #0xdf	; 223
	.db #0x38	; 56	'8'
	.db #0x5f	; 95
	.db #0x30	; 48	'0'
	.db #0x1f	; 31
	.db #0x30	; 48	'0'
	.db #0x2f	; 47
	.db #0x18	; 24
	.db #0xcf	; 207
	.db #0x38	; 56	'8'
	.db #0xff	; 255
	.db #0xf0	; 240
	.db #0xfc	; 252
	.db #0x00	; 0
	.db #0x03	; 3
	.db #0x03	; 3
	.db #0x80	; 128
	.db #0xff	; 255
	.db #0xff	; 255
	.db #0xff	; 255
	.db #0x42	; 66	'B'
	.db #0x7e	; 126
	.db #0x3c	; 60
	.db #0x24	; 36
	.db #0x1c	; 28
	.db #0x14	; 20
	.db #0x14	; 20
	.db #0x1c	; 28
	.db #0x3e	; 62
	.db #0x1c	; 28
	.db #0x41	; 65	'A'
	.db #0x00	; 0
	.db #0x3f	; 63
	.db #0xff	; 255
	.db #0xc0	; 192
	.db #0xff	; 255
	.db #0x3f	; 63
	.db #0x3f	; 63
	.db #0x10	; 16
	.db #0x00	; 0
	.db #0x08	; 8
	.db #0x00	; 0
	.db #0x14	; 20
	.db #0x00	; 0
	.db #0x22	; 34
	.db #0x00	; 0
	.db #0x41	; 65	'A'
	.db #0x00	; 0
	.db #0xfc	; 252
	.db #0xff	; 255
	.db #0x03	; 3
	.db #0xff	; 255
	.db #0xfc	; 252
	.db #0xfc	; 252
	.db #0x10	; 16
	.db #0x00	; 0
	.db #0x08	; 8
	.db #0x00	; 0
	.db #0x14	; 20
	.db #0x00	; 0
	.db #0x22	; 34
	.db #0x00	; 0
	.db #0x41	; 65	'A'
	.db #0x00	; 0
	.db #0x01	; 1
	.db #0xff	; 255
	.db #0xff	; 255
	.db #0xff	; 255
	.db #0x42	; 66	'B'
	.db #0x7e	; 126
	.db #0x3c	; 60
	.db #0x24	; 36
	.db #0x38	; 56	'8'
	.db #0x28	; 40
	.db #0x2c	; 44
	.db #0x38	; 56	'8'
	.db #0x3a	; 58
	.db #0x38	; 56	'8'
	.db #0x41	; 65	'A'
	.db #0x00	; 0
	.db #0xff	; 255
	.db #0xff	; 255
	.db #0x00	; 0
	.db #0x00	; 0
	.db #0xc0	; 192
	.db #0x3f	; 63
	.db #0xd9	; 217
	.db #0x26	; 38
	.db #0xd9	; 217
	.db #0x26	; 38
	.db #0xc6	; 198
	.db #0x20	; 32
	.db #0xc6	; 198
	.db #0x20	; 32
	.db #0xd9	; 217
	.db #0x26	; 38
	.db #0xd9	; 217
	.db #0x26	; 38
	.db #0xc6	; 198
	.db #0x20	; 32
	.db #0xc6	; 198
	.db #0x20	; 32
	.db #0xd9	; 217
	.db #0x26	; 38
	.db #0xd9	; 217
	.db #0x26	; 38
	.db #0xc0	; 192
	.db #0x3f	; 63
	.db #0x3f	; 63
	.db #0x00	; 0
	.db #0xc0	; 192
	.db #0xc0	; 192
	.db #0xff	; 255
	.db #0xff	; 255
	.db #0x00	; 0
	.db #0x00	; 0
	.db #0x03	; 3
	.db #0xfc	; 252
	.db #0x9b	; 155
	.db #0x64	; 100	'd'
	.db #0x9b	; 155
	.db #0x64	; 100	'd'
	.db #0x63	; 99	'c'
	.db #0x04	; 4
	.db #0x63	; 99	'c'
	.db #0x04	; 4
	.db #0x9b	; 155
	.db #0x64	; 100	'd'
	.db #0x9b	; 155
	.db #0x64	; 100	'd'
	.db #0x63	; 99	'c'
	.db #0x04	; 4
	.db #0x63	; 99	'c'
	.db #0x04	; 4
	.db #0x9b	; 155
	.db #0x64	; 100	'd'
	.db #0x9b	; 155
	.db #0x64	; 100	'd'
	.db #0x03	; 3
	.db #0xfc	; 252
	.db #0xfc	; 252
	.db #0x00	; 0
	.db #0x03	; 3
	.db #0x03	; 3
	.db #0xff	; 255
	.db #0xff	; 255
	.db #0x1f	; 31
	.db #0xff	; 255
	.db #0x18	; 24
	.db #0xf7	; 247
	.db #0x18	; 24
	.db #0xf7	; 247
	.db #0xfa	; 250
	.db #0x15	; 21
	.db #0xf2	; 242
	.db #0x15	; 21
	.db #0xf0	; 240
	.db #0x16	; 22
	.db #0x11	; 17
	.db #0xf6	; 246
	.db #0xf8	; 248
	.db #0x17	; 23
	.db #0xf8	; 248
	.db #0x17	; 23
	.db #0xf9	; 249
	.db #0x16	; 22
	.db #0x1b	; 27
	.db #0xf5	; 245
	.db #0xff	; 255
	.db #0x12	; 18
	.db #0xff	; 255
	.db #0x14	; 20
	.db #0xff	; 255
	.db #0x18	; 24
	.db #0x10	; 16
	.db #0xff	; 255
	.db #0xff	; 255
	.db #0xff	; 255
	.db #0xf8	; 248
	.db #0xff	; 255
	.db #0x18	; 24
	.db #0xef	; 239
	.db #0x18	; 24
	.db #0xef	; 239
	.db #0x5f	; 95
	.db #0xa8	; 168
	.db #0x4f	; 79	'O'
	.db #0xa8	; 168
	.db #0x0f	; 15
	.db #0x68	; 104	'h'
	.db #0x88	; 136
	.db #0x6f	; 111	'o'
	.db #0x1f	; 31
	.db #0xe8	; 232
	.db #0x1f	; 31
	.db #0xe8	; 232
	.db #0x9f	; 159
	.db #0x68	; 104	'h'
	.db #0xd8	; 216
	.db #0xaf	; 175
	.db #0xff	; 255
	.db #0x48	; 72	'H'
	.db #0xff	; 255
	.db #0x28	; 40
	.db #0xff	; 255
	.db #0x18	; 24
	.db #0x08	; 8
	.db #0xff	; 255
	.db #0x00	; 0
	.db #0x00	; 0
	.db #0x00	; 0
	.db #0x00	; 0
	.db #0x00	; 0
	.db #0x00	; 0
	.db #0x00	; 0
	.db #0x00	; 0
	.db #0x00	; 0
	.db #0x00	; 0
	.db #0x00	; 0
	.db #0x00	; 0
	.db #0x00	; 0
	.db #0x00	; 0
	.db #0x00	; 0
	.db #0x00	; 0
_Tileset_3:
	.db #0x00	; 0
	.db #0x00	; 0
	.db #0x00	; 0
	.db #0x00	; 0
	.db #0x00	; 0
	.db #0x00	; 0
	.db #0x00	; 0
	.db #0x00	; 0
	.db #0x00	; 0
	.db #0x00	; 0
	.db #0x00	; 0
	.db #0x00	; 0
	.db #0x00	; 0
	.db #0x00	; 0
	.db #0x00	; 0
	.db #0x00	; 0
	.db #0x02	; 2
	.db #0x00	; 0
	.db #0x00	; 0
	.db #0x00	; 0
	.db #0x40	; 64
	.db #0x00	; 0
	.db #0x40	; 64
	.db #0x00	; 0
	.db #0x01	; 1
	.db #0x00	; 0
	.db #0x00	; 0
	.db #0x00	; 0
	.db #0x08	; 8
	.db #0x00	; 0
	.db #0x08	; 8
	.db #0x00	; 0
	.db #0x00	; 0
	.db #0x00	; 0
	.db #0x00	; 0
	.db #0x00	; 0
	.db #0x41	; 65	'A'
	.db #0x00	; 0
	.db #0x22	; 34
	.db #0x00	; 0
	.db #0x20	; 32
	.db #0x00	; 0
	.db #0x40	; 64
	.db #0x00	; 0
	.db #0x44	; 68	'D'
	.db #0x00	; 0
	.db #0x00	; 0
	.db #0x00	; 0
	.db #0x00	; 0
	.db #0x00	; 0
	.db #0x20	; 32
	.db #0x00	; 0
	.db #0x40	; 64
	.db #0x00	; 0
	.db #0x41	; 65	'A'
	.db #0x00	; 0
	.db #0x00	; 0
	.db #0x00	; 0
	.db #0x00	; 0
	.db #0x00	; 0
	.db #0x04	; 4
	.db #0x00	; 0
	.db #0x24	; 36
	.db #0x00	; 0
	.db #0x00	; 0
	.db #0x00	; 0
	.db #0x00	; 0
	.db #0x00	; 0
	.db #0x00	; 0
	.db #0x00	; 0
	.db #0x48	; 72	'H'
	.db #0x00	; 0
	.db #0x44	; 68	'D'
	.db #0x00	; 0
	.db #0x04	; 4
	.db #0x00	; 0
	.db #0x00	; 0
	.db #0x00	; 0
	.db #0x00	; 0
	.db #0x00	; 0
	.db #0x00	; 0
	.db #0x00	; 0
	.db #0x00	; 0
	.db #0x00	; 0
	.db #0x00	; 0
	.db #0x00	; 0
	.db #0x20	; 32
	.db #0x00	; 0
	.db #0x20	; 32
	.db #0x00	; 0
	.db #0x00	; 0
	.db #0x00	; 0
	.db #0x00	; 0
	.db #0x00	; 0
	.db #0x00	; 0
	.db #0x00	; 0
	.db #0x00	; 0
	.db #0x00	; 0
	.db #0x01	; 1
	.db #0x00	; 0
	.db #0x00	; 0
	.db #0x00	; 0
	.db #0x00	; 0
	.db #0x00	; 0
	.db #0x00	; 0
	.db #0x00	; 0
	.db #0x20	; 32
	.db #0x00	; 0
	.db #0x00	; 0
	.db #0x00	; 0
	.db #0x02	; 2
	.db #0x00	; 0
	.db #0x00	; 0
	.db #0x00	; 0
	.db #0x20	; 32
	.db #0x00	; 0
	.db #0x04	; 4
	.db #0x00	; 0
	.db #0x00	; 0
	.db #0x00	; 0
	.db #0x00	; 0
	.db #0x00	; 0
	.db #0x00	; 0
	.db #0x00	; 0
	.db #0x00	; 0
	.db #0x00	; 0
	.db #0x00	; 0
	.db #0x00	; 0
	.db #0x01	; 1
	.db #0x00	; 0
	.db #0x00	; 0
	.db #0x00	; 0
	.db #0x00	; 0
	.db #0x00	; 0
	.db #0x04	; 4
	.db #0x00	; 0
	.db #0x04	; 4
	.db #0x00	; 0
	.db #0x00	; 0
	.db #0x00	; 0
	.db #0x00	; 0
	.db #0x00	; 0
	.db #0x00	; 0
	.db #0x00	; 0
	.db #0x00	; 0
	.db #0x00	; 0
	.db #0x07	; 7
	.db #0x00	; 0
	.db #0x1f	; 31
	.db #0x00	; 0
	.db #0x23	; 35
	.db #0x04	; 4
	.db #0x33	; 51	'3'
	.db #0x04	; 4
	.db #0x7f	; 127
	.db #0x00	; 0
	.db #0x7f	; 127
	.db #0x00	; 0
	.db #0x1f	; 31
	.db #0x00	; 0
	.db #0x7f	; 127
	.db #0x00	; 0
	.db #0x1f	; 31
	.db #0x20	; 32
	.db #0x23	; 35
	.db #0x04	; 4
	.db #0x07	; 7
	.db #0x00	; 0
	.db #0x1f	; 31
	.db #0x00	; 0
	.db #0x1f	; 31
	.db #0x00	; 0
	.db #0x1f	; 31
	.db #0x00	; 0
	.db #0x0f	; 15
	.db #0x00	; 0
	.db #0x00	; 0
	.db #0x00	; 0
	.db #0x30	; 48	'0'
	.db #0x00	; 0
	.db #0xbe	; 190
	.db #0x00	; 0
	.db #0xbf	; 191
	.db #0x00	; 0
	.db #0xff	; 255
	.db #0x00	; 0
	.db #0xdf	; 223
	.db #0x20	; 32
	.db #0xff	; 255
	.db #0x00	; 0
	.db #0xfd	; 253
	.db #0x02	; 2
	.db #0xff	; 255
	.db #0x00	; 0
	.db #0xff	; 255
	.db #0x00	; 0
	.db #0xff	; 255
	.db #0x00	; 0
	.db #0xdf	; 223
	.db #0x20	; 32
	.db #0xdf	; 223
	.db #0x20	; 32
	.db #0xff	; 255
	.db #0x00	; 0
	.db #0xff	; 255
	.db #0x00	; 0
	.db #0xff	; 255
	.db #0x00	; 0
	.db #0x00	; 0
	.db #0x00	; 0
	.db #0x00	; 0
	.db #0x00	; 0
	.db #0x00	; 0
	.db #0x00	; 0
	.db #0x00	; 0
	.db #0x00	; 0
	.db #0xca	; 202
	.db #0x04	; 4
	.db #0xfe	; 254
	.db #0x00	; 0
	.db #0xff	; 255
	.db #0x00	; 0
	.db #0xff	; 255
	.db #0x00	; 0
	.db #0xff	; 255
	.db #0x00	; 0
	.db #0xdf	; 223
	.db #0x20	; 32
	.db #0xfb	; 251
	.db #0x04	; 4
	.db #0xff	; 255
	.db #0x00	; 0
	.db #0xff	; 255
	.db #0x00	; 0
	.db #0xff	; 255
	.db #0x00	; 0
	.db #0xff	; 255
	.db #0x00	; 0
	.db #0xff	; 255
	.db #0x00	; 0
	.db #0x00	; 0
	.db #0x00	; 0
	.db #0x00	; 0
	.db #0x00	; 0
	.db #0x00	; 0
	.db #0x00	; 0
	.db #0x00	; 0
	.db #0x00	; 0
	.db #0x31	; 49	'1'
	.db #0x00	; 0
	.db #0x5b	; 91
	.db #0x20	; 32
	.db #0xff	; 255
	.db #0x00	; 0
	.db #0xfd	; 253
	.db #0x02	; 2
	.db #0x00	; 0
	.db #0x00	; 0
	.db #0x03	; 3
	.db #0x00	; 0
	.db #0x59	; 89	'Y'
	.db #0x00	; 0
	.db #0x79	; 121	'y'
	.db #0x04	; 4
	.db #0xfb	; 251
	.db #0x04	; 4
	.db #0xff	; 255
	.db #0x00	; 0
	.db #0xff	; 255
	.db #0x00	; 0
	.db #0xff	; 255
	.db #0x00	; 0
	.db #0x00	; 0
	.db #0x00	; 0
	.db #0xe0	; 224
	.db #0x00	; 0
	.db #0xc0	; 192
	.db #0x00	; 0
	.db #0xf0	; 240
	.db #0x00	; 0
	.db #0xf4	; 244
	.db #0x00	; 0
	.db #0xde	; 222
	.db #0x20	; 32
	.db #0xfc	; 252
	.db #0x00	; 0
	.db #0xf8	; 248
	.db #0x00	; 0
	.db #0xfe	; 254
	.db #0x00	; 0
	.db #0xfc	; 252
	.db #0x00	; 0
	.db #0xf4	; 244
	.db #0x00	; 0
	.db #0xd0	; 208
	.db #0x20	; 32
	.db #0xd8	; 216
	.db #0x20	; 32
	.db #0xf8	; 248
	.db #0x00	; 0
	.db #0xf0	; 240
	.db #0x00	; 0
	.db #0xf8	; 248
	.db #0x00	; 0
	.db #0x06	; 6
	.db #0x01	; 1
	.db #0x03	; 3
	.db #0x00	; 0
	.db #0x01	; 1
	.db #0x00	; 0
	.db #0x03	; 3
	.db #0x04	; 4
	.db #0x0b	; 11
	.db #0x04	; 4
	.db #0x1f	; 31
	.db #0x00	; 0
	.db #0x1f	; 31
	.db #0x00	; 0
	.db #0x1b	; 27
	.db #0x00	; 0
	.db #0x1f	; 31
	.db #0x00	; 0
	.db #0x07	; 7
	.db #0x00	; 0
	.db #0x03	; 3
	.db #0x04	; 4
	.db #0x0f	; 15
	.db #0x00	; 0
	.db #0x03	; 3
	.db #0x00	; 0
	.db #0x03	; 3
	.db #0x00	; 0
	.db #0x03	; 3
	.db #0x00	; 0
	.db #0x07	; 7
	.db #0x00	; 0
	.db #0xff	; 255
	.db #0x00	; 0
	.db #0xfe	; 254
	.db #0x01	; 1
	.db #0xff	; 255
	.db #0x00	; 0
	.db #0xff	; 255
	.db #0x00	; 0
	.db #0xff	; 255
	.db #0x00	; 0
	.db #0xdf	; 223
	.db #0x20	; 32
	.db #0xff	; 255
	.db #0x00	; 0
	.db #0xfd	; 253
	.db #0x02	; 2
	.db #0xfe	; 254
	.db #0x01	; 1
	.db #0xff	; 255
	.db #0x00	; 0
	.db #0xff	; 255
	.db #0x00	; 0
	.db #0xfd	; 253
	.db #0x02	; 2
	.db #0xfd	; 253
	.db #0x02	; 2
	.db #0xff	; 255
	.db #0x00	; 0
	.db #0xff	; 255
	.db #0x00	; 0
	.db #0xff	; 255
	.db #0x00	; 0
	.db #0xf0	; 240
	.db #0x00	; 0
	.db #0xf0	; 240
	.db #0x00	; 0
	.db #0xf0	; 240
	.db #0x00	; 0
	.db #0xc0	; 192
	.db #0x00	; 0
	.db #0xc0	; 192
	.db #0x00	; 0
	.db #0x80	; 128
	.db #0x40	; 64
	.db #0xe0	; 224
	.db #0x00	; 0
	.db #0xf0	; 240
	.db #0x00	; 0
	.db #0xf0	; 240
	.db #0x00	; 0
	.db #0xf0	; 240
	.db #0x00	; 0
	.db #0xf0	; 240
	.db #0x00	; 0
	.db #0xd8	; 216
	.db #0x20	; 32
	.db #0xd8	; 216
	.db #0x20	; 32
	.db #0xe0	; 224
	.db #0x00	; 0
	.db #0xe0	; 224
	.db #0x00	; 0
	.db #0xf0	; 240
	.db #0x00	; 0
	.db #0x0e	; 14
	.db #0x01	; 1
	.db #0x1f	; 31
	.db #0x00	; 0
	.db #0x1f	; 31
	.db #0x00	; 0
	.db #0x1b	; 27
	.db #0x04	; 4
	.db #0x3b	; 59
	.db #0x04	; 4
	.db #0x3f	; 63
	.db #0x00	; 0
	.db #0x1f	; 31
	.db #0x00	; 0
	.db #0x5f	; 95
	.db #0x00	; 0
	.db #0x5f	; 95
	.db #0x00	; 0
	.db #0x13	; 19
	.db #0x20	; 32
	.db #0x03	; 3
	.db #0x04	; 4
	.db #0x0f	; 15
	.db #0x00	; 0
	.db #0x0f	; 15
	.db #0x00	; 0
	.db #0x07	; 7
	.db #0x00	; 0
	.db #0x07	; 7
	.db #0x00	; 0
	.db #0x00	; 0
	.db #0x00	; 0
	.db #0xff	; 255
	.db #0x00	; 0
	.db #0xff	; 255
	.db #0x00	; 0
	.db #0xff	; 255
	.db #0x00	; 0
	.db #0xdf	; 223
	.db #0x20	; 32
	.db #0xdb	; 219
	.db #0x00	; 0
	.db #0x98	; 152
	.db #0x00	; 0
	.db #0x00	; 0
	.db #0x00	; 0
	.db #0x00	; 0
	.db #0x00	; 0
	.db #0xff	; 255
	.db #0x00	; 0
	.db #0xff	; 255
	.db #0x00	; 0
	.db #0xff	; 255
	.db #0x00	; 0
	.db #0xdf	; 223
	.db #0x20	; 32
	.db #0xdf	; 223
	.db #0x20	; 32
	.db #0xff	; 255
	.db #0x00	; 0
	.db #0xe7	; 231
	.db #0x00	; 0
	.db #0x00	; 0
	.db #0x00	; 0
	.db #0xff	; 255
	.db #0x00	; 0
	.db #0xdf	; 223
	.db #0x20	; 32
	.db #0xf3	; 243
	.db #0x04	; 4
	.db #0xfe	; 254
	.db #0x00	; 0
	.db #0xfc	; 252
	.db #0x00	; 0
	.db #0x60	; 96
	.db #0x00	; 0
	.db #0x00	; 0
	.db #0x00	; 0
	.db #0x00	; 0
	.db #0x00	; 0
	.db #0xf8	; 248
	.db #0x00	; 0
	.db #0xf8	; 248
	.db #0x00	; 0
	.db #0xf0	; 240
	.db #0x00	; 0
	.db #0xe0	; 224
	.db #0x00	; 0
	.db #0xfc	; 252
	.db #0x00	; 0
	.db #0xdc	; 220
	.db #0x20	; 32
	.db #0xfc	; 252
	.db #0x00	; 0
	.db #0xf8	; 248
	.db #0x02	; 2
	.db #0xfe	; 254
	.db #0x00	; 0
	.db #0xfe	; 254
	.db #0x00	; 0
	.db #0xfe	; 254
	.db #0x00	; 0
	.db #0xcc	; 204
	.db #0x00	; 0
	.db #0xc0	; 192
	.db #0x20	; 32
	.db #0xe0	; 224
	.db #0x00	; 0
	.db #0x00	; 0
	.db #0x00	; 0
	.db #0x00	; 0
	.db #0x00	; 0
	.db #0x1e	; 30
	.db #0x01	; 1
	.db #0x1f	; 31
	.db #0x00	; 0
	.db #0x3f	; 63
	.db #0x00	; 0
	.db #0xfb	; 251
	.db #0x04	; 4
	.db #0xfb	; 251
	.db #0x04	; 4
	.db #0xff	; 255
	.db #0x00	; 0
	.db #0xff	; 255
	.db #0x00	; 0
	.db #0xff	; 255
	.db #0x00	; 0
	.db #0xff	; 255
	.db #0x00	; 0
	.db #0xdf	; 223
	.db #0x20	; 32
	.db #0xfb	; 251
	.db #0x04	; 4
	.db #0xff	; 255
	.db #0x00	; 0
	.db #0xff	; 255
	.db #0x00	; 0
	.db #0x3f	; 63
	.db #0x00	; 0
	.db #0x1f	; 31
	.db #0x00	; 0
	.db #0x1f	; 31
	.db #0x00	; 0
	.db #0xf8	; 248
	.db #0x00	; 0
	.db #0xf8	; 248
	.db #0x00	; 0
	.db #0xfc	; 252
	.db #0x00	; 0
	.db #0xff	; 255
	.db #0x00	; 0
	.db #0xff	; 255
	.db #0x00	; 0
	.db #0xdf	; 223
	.db #0x20	; 32
	.db #0xff	; 255
	.db #0x00	; 0
	.db #0xfd	; 253
	.db #0x02	; 2
	.db #0xff	; 255
	.db #0x00	; 0
	.db #0xff	; 255
	.db #0x00	; 0
	.db #0xff	; 255
	.db #0x00	; 0
	.db #0xdf	; 223
	.db #0x20	; 32
	.db #0xdf	; 223
	.db #0x20	; 32
	.db #0xfc	; 252
	.db #0x00	; 0
	.db #0xf8	; 248
	.db #0x00	; 0
	.db #0xf8	; 248
	.db #0x00	; 0
	.db #0x00	; 0
	.db #0x00	; 0
	.db #0x01	; 1
	.db #0x00	; 0
	.db #0x01	; 1
	.db #0x00	; 0
	.db #0x02	; 2
	.db #0x01	; 1
	.db #0x04	; 4
	.db #0x01	; 1
	.db #0x0b	; 11
	.db #0x00	; 0
	.db #0x16	; 22
	.db #0x01	; 1
	.db #0x3c	; 60
	.db #0x03	; 3
	.db #0x28	; 40
	.db #0x16	; 22
	.db #0x42	; 66	'B'
	.db #0x3d	; 61
	.db #0x44	; 68	'D'
	.db #0x3b	; 59
	.db #0x01	; 1
	.db #0x7f	; 127
	.db #0x53	; 83	'S'
	.db #0x7e	; 126
	.db #0x2b	; 43
	.db #0x2e	; 46
	.db #0x07	; 7
	.db #0x07	; 7
	.db #0x00	; 0
	.db #0x00	; 0
	.db #0x00	; 0
	.db #0x00	; 0
	.db #0x80	; 128
	.db #0x80	; 128
	.db #0x40	; 64
	.db #0xc0	; 192
	.db #0x20	; 32
	.db #0xe0	; 224
	.db #0x10	; 16
	.db #0xf0	; 240
	.db #0x28	; 40
	.db #0xf8	; 248
	.db #0x1c	; 28
	.db #0xfc	; 252
	.db #0x8e	; 142
	.db #0x7e	; 126
	.db #0x06	; 6
	.db #0xfe	; 254
	.db #0x22	; 34
	.db #0xfe	; 254
	.db #0xf2	; 242
	.db #0x9e	; 158
	.db #0x96	; 150
	.db #0x3e	; 62
	.db #0xbc	; 188
	.db #0x5c	; 92
	.db #0x10	; 16
	.db #0xf0	; 240
	.db #0x20	; 32
	.db #0xe0	; 224
	.db #0xc0	; 192
	.db #0xc0	; 192
	.db #0x00	; 0
	.db #0x08	; 8
	.db #0x00	; 0
	.db #0x08	; 8
	.db #0x08	; 8
	.db #0x14	; 20
	.db #0x38	; 56	'8'
	.db #0x04	; 4
	.db #0x2c	; 44
	.db #0x14	; 20
	.db #0x4b	; 75	'K'
	.db #0x27	; 39
	.db #0x56	; 86	'V'
	.db #0x0a	; 10
	.db #0xd1	; 209
	.db #0x2f	; 47
	.db #0x2a	; 42
	.db #0x46	; 70	'F'
	.db #0xd5	; 213
	.db #0x0b	; 11
	.db #0x26	; 38
	.db #0x5e	; 94
	.db #0x08	; 8
	.db #0x78	; 120	'x'
	.db #0x18	; 24
	.db #0x18	; 24
	.db #0x1b	; 27
	.db #0x3c	; 60
	.db #0x1d	; 29
	.db #0x3e	; 62
	.db #0x3f	; 63
	.db #0x60	; 96
	.db #0x21	; 33
	.db #0xde	; 222
	.db #0x22	; 34
	.db #0xdd	; 221
	.db #0x1c	; 28
	.db #0xe3	; 227
	.db #0xa2	; 162
	.db #0x5d	; 93
	.db #0xe3	; 227
	.db #0x1c	; 28
	.db #0x22	; 34
	.db #0xdd	; 221
	.db #0x3c	; 60
	.db #0xc3	; 195
	.db #0x26	; 38
	.db #0xd9	; 217
	.db #0x23	; 35
	.db #0xdc	; 220
	.db #0x21	; 33
	.db #0xde	; 222
	.db #0x31	; 49	'1'
	.db #0xce	; 206
	.db #0x31	; 49	'1'
	.db #0xce	; 206
	.db #0x4a	; 74	'J'
	.db #0xb5	; 181
	.db #0xc6	; 198
	.db #0x39	; 57	'9'
	.db #0x42	; 66	'B'
	.db #0xbd	; 189
	.db #0x41	; 65	'A'
	.db #0xbe	; 190
	.db #0x12	; 18
	.db #0xed	; 237
	.db #0x0e	; 14
	.db #0xf1	; 241
	.db #0x09	; 9
	.db #0xf6	; 246
	.db #0x10	; 16
	.db #0xef	; 239
	.db #0x30	; 48	'0'
	.db #0xcf	; 207
	.db #0xdf	; 223
	.db #0x20	; 32
	.db #0x22	; 34
	.db #0xdd	; 221
	.db #0x20	; 32
	.db #0xdf	; 223
	.db #0x61	; 97	'a'
	.db #0x9e	; 158
	.db #0xc3	; 195
	.db #0x3c	; 60
	.db #0x3e	; 62
	.db #0xc1	; 193
	.db #0x12	; 18
	.db #0xed	; 237
	.db #0x11	; 17
	.db #0xee	; 238
	.db #0x11	; 17
	.db #0xee	; 238
	.db #0x61	; 97	'a'
	.db #0x9e	; 158
	.db #0xe2	; 226
	.db #0x1d	; 29
	.db #0x21	; 33
	.db #0x1e	; 30
	.db #0x02	; 2
	.db #0x1d	; 29
	.db #0x0c	; 12
	.db #0x03	; 3
	.db #0x02	; 2
	.db #0x05	; 5
	.db #0x03	; 3
	.db #0x04	; 4
	.db #0x02	; 2
	.db #0x0d	; 13
	.db #0x0c	; 12
	.db #0x03	; 3
	.db #0x06	; 6
	.db #0x19	; 25
	.db #0x03	; 3
	.db #0x1c	; 28
	.db #0x01	; 1
	.db #0x1e	; 30
	.db #0x01	; 1
	.db #0x0e	; 14
	.db #0x01	; 1
	.db #0x0e	; 14
	.db #0x0a	; 10
	.db #0x05	; 5
	.db #0x06	; 6
	.db #0x19	; 25
	.db #0x02	; 2
	.db #0x1d	; 29
	.db #0x01	; 1
	.db #0x0e	; 14
	.db #0x32	; 50	'2'
	.db #0xc8	; 200
	.db #0x08	; 8
	.db #0xf0	; 240
	.db #0x00	; 0
	.db #0xf0	; 240
	.db #0x10	; 16
	.db #0xe0	; 224
	.db #0x20	; 32
	.db #0xc0	; 192
	.db #0xc0	; 192
	.db #0x20	; 32
	.db #0x20	; 32
	.db #0xc0	; 192
	.db #0x20	; 32
	.db #0xd8	; 216
	.db #0x60	; 96
	.db #0x98	; 152
	.db #0xc0	; 192
	.db #0x30	; 48	'0'
	.db #0x20	; 32
	.db #0xc0	; 192
	.db #0x10	; 16
	.db #0xe0	; 224
	.db #0x00	; 0
	.db #0xe0	; 224
	.db #0x00	; 0
	.db #0xe0	; 224
	.db #0x60	; 96
	.db #0x88	; 136
	.db #0xe0	; 224
	.db #0x18	; 24
	.db #0x00	; 0
	.db #0x00	; 0
	.db #0x00	; 0
	.db #0x00	; 0
	.db #0x00	; 0
	.db #0x00	; 0
	.db #0x02	; 2
	.db #0x01	; 1
	.db #0x03	; 3
	.db #0x0c	; 12
	.db #0x02	; 2
	.db #0x1d	; 29
	.db #0x1c	; 28
	.db #0x03	; 3
	.db #0x26	; 38
	.db #0x19	; 25
	.db #0x23	; 35
	.db #0x1c	; 28
	.db #0x21	; 33
	.db #0x1e	; 30
	.db #0x11	; 17
	.db #0x0e	; 14
	.db #0x11	; 17
	.db #0x0e	; 14
	.db #0x0a	; 10
	.db #0x05	; 5
	.db #0x02	; 2
	.db #0x01	; 1
	.db #0x00	; 0
	.db #0x00	; 0
	.db #0x00	; 0
	.db #0x00	; 0
	.db #0x00	; 0
	.db #0x00	; 0
	.db #0x00	; 0
	.db #0x00	; 0
	.db #0x00	; 0
	.db #0x00	; 0
	.db #0x00	; 0
	.db #0xc0	; 192
	.db #0x30	; 48	'0'
	.db #0xc0	; 192
	.db #0xd8	; 216
	.db #0x20	; 32
	.db #0x20	; 32
	.db #0xd8	; 216
	.db #0x20	; 32
	.db #0xdc	; 220
	.db #0x60	; 96
	.db #0x9c	; 156
	.db #0xc0	; 192
	.db #0x3c	; 60
	.db #0x38	; 56	'8'
	.db #0xc0	; 192
	.db #0x10	; 16
	.db #0xe8	; 232
	.db #0x10	; 16
	.db #0xe0	; 224
	.db #0x00	; 0
	.db #0xc0	; 192
	.db #0x00	; 0
	.db #0x00	; 0
	.db #0x00	; 0
	.db #0x00	; 0
	.db #0x00	; 0
	.db #0x00	; 0
	.db #0x00	; 0
	.db #0x00	; 0
	.db #0x00	; 0
	.db #0x00	; 0
	.db #0x22	; 34
	.db #0x41	; 65	'A'
	.db #0xe3	; 227
	.db #0x1c	; 28
	.db #0x22	; 34
	.db #0xdd	; 221
	.db #0x3c	; 60
	.db #0xc3	; 195
	.db #0x26	; 38
	.db #0xd9	; 217
	.db #0x23	; 35
	.db #0xdc	; 220
	.db #0x21	; 33
	.db #0xde	; 222
	.db #0x31	; 49	'1'
	.db #0xce	; 206
	.db #0x01	; 1
	.db #0x8a	; 138
	.db #0x40	; 64
	.db #0x81	; 129
	.db #0x00	; 0
	.db #0x00	; 0
	.db #0x00	; 0
	.db #0x00	; 0
	.db #0x00	; 0
	.db #0x00	; 0
	.db #0x00	; 0
	.db #0x00	; 0
	.db #0x00	; 0
	.db #0x00	; 0
	.db #0x00	; 0
	.db #0x00	; 0
	.db #0x00	; 0
	.db #0x83	; 131
	.db #0x20	; 32
	.db #0xc7	; 199
	.db #0xdf	; 223
	.db #0x20	; 32
	.db #0x22	; 34
	.db #0xdd	; 221
	.db #0x21	; 33
	.db #0xde	; 222
	.db #0x61	; 97	'a'
	.db #0x9e	; 158
	.db #0xc3	; 195
	.db #0x3c	; 60
	.db #0x3e	; 62
	.db #0xc1	; 193
	.db #0x02	; 2
	.db #0x8d	; 141
	.db #0x01	; 1
	.db #0x82	; 130
	.db #0x00	; 0
	.db #0x00	; 0
	.db #0x01	; 1
	.db #0x00	; 0
	.db #0x00	; 0
	.db #0x00	; 0
	.db #0x01	; 1
	.db #0x0e	; 14
	.db #0x02	; 2
	.db #0x0d	; 13
	.db #0x1c	; 28
	.db #0x03	; 3
	.db #0xa2	; 162
	.db #0x5d	; 93
	.db #0xe3	; 227
	.db #0x1c	; 28
	.db #0x22	; 34
	.db #0xdd	; 221
	.db #0x3c	; 60
	.db #0xc3	; 195
	.db #0x26	; 38
	.db #0xd9	; 217
	.db #0x23	; 35
	.db #0xdc	; 220
	.db #0x21	; 33
	.db #0xde	; 222
	.db #0x31	; 49	'1'
	.db #0xce	; 206
	.db #0x31	; 49	'1'
	.db #0xce	; 206
	.db #0x4a	; 74	'J'
	.db #0xb5	; 181
	.db #0x06	; 6
	.db #0x19	; 25
	.db #0x02	; 2
	.db #0x0d	; 13
	.db #0x01	; 1
	.db #0x0e	; 14
	.db #0x30	; 48	'0'
	.db #0xc0	; 192
	.db #0x00	; 0
	.db #0xf0	; 240
	.db #0x08	; 8
	.db #0xf0	; 240
	.db #0x10	; 16
	.db #0xef	; 239
	.db #0x30	; 48	'0'
	.db #0xcf	; 207
	.db #0xdf	; 223
	.db #0x20	; 32
	.db #0x22	; 34
	.db #0xdd	; 221
	.db #0x21	; 33
	.db #0xde	; 222
	.db #0x61	; 97	'a'
	.db #0x9e	; 158
	.db #0xc3	; 195
	.db #0x3c	; 60
	.db #0x3e	; 62
	.db #0xc1	; 193
	.db #0x12	; 18
	.db #0xed	; 237
	.db #0x11	; 17
	.db #0xee	; 238
	.db #0x10	; 16
	.db #0xe8	; 232
	.db #0x60	; 96
	.db #0x90	; 144
	.db #0xe0	; 224
	.db #0x10	; 16
	.db #0x00	; 0
	.db #0x00	; 0
	.db #0x00	; 0
	.db #0x00	; 0
	.db #0x00	; 0
	.db #0x00	; 0
	.db #0x00	; 0
	.db #0x00	; 0
	.db #0x00	; 0
	.db #0x00	; 0
	.db #0x00	; 0
	.db #0x00	; 0
	.db #0x7f	; 127
	.db #0x7f	; 127
	.db #0x7f	; 127
	.db #0x40	; 64
	.db #0x00	; 0
	.db #0x03	; 3
	.db #0x07	; 7
	.db #0x04	; 4
	.db #0x09	; 9
	.db #0x08	; 8
	.db #0x19	; 25
	.db #0x10	; 16
	.db #0x1f	; 31
	.db #0x10	; 16
	.db #0x16	; 22
	.db #0x19	; 25
	.db #0xf0	; 240
	.db #0xff	; 255
	.db #0xf9	; 249
	.db #0x1f	; 31
	.db #0x72	; 114	'r'
	.db #0x5b	; 91
	.db #0x72	; 114	'r'
	.db #0x5b	; 91
	.db #0x72	; 114	'r'
	.db #0x5b	; 91
	.db #0x7f	; 127
	.db #0x5f	; 95
	.db #0x70	; 112	'p'
	.db #0x50	; 80	'P'
	.db #0x70	; 112	'p'
	.db #0x50	; 80	'P'
	.db #0x70	; 112	'p'
	.db #0x53	; 83	'S'
	.db #0x72	; 114	'r'
	.db #0x51	; 81	'Q'
	.db #0x57	; 87	'W'
	.db #0x7f	; 127
	.db #0x52	; 82	'R'
	.db #0x7d	; 125
	.db #0x56	; 86	'V'
	.db #0x79	; 121	'y'
	.db #0xf6	; 246
	.db #0xf9	; 249
	.db #0x17	; 23
	.db #0x19	; 25
	.db #0x0f	; 15
	.db #0x09	; 9
	.db #0x0f	; 15
	.db #0x09	; 9
	.db #0x07	; 7
	.db #0x07	; 7
	.db #0x72	; 114	'r'
	.db #0x51	; 81	'Q'
	.db #0x70	; 112	'p'
	.db #0x53	; 83	'S'
	.db #0x71	; 113	'q'
	.db #0x52	; 82	'R'
	.db #0x70	; 112	'p'
	.db #0x53	; 83	'S'
	.db #0x72	; 114	'r'
	.db #0x51	; 81	'Q'
	.db #0x72	; 114	'r'
	.db #0x51	; 81	'Q'
	.db #0x70	; 112	'p'
	.db #0x53	; 83	'S'
	.db #0x70	; 112	'p'
	.db #0x53	; 83	'S'
	.db #0x41	; 65	'A'
	.db #0x21	; 33
	.db #0x01	; 1
	.db #0x61	; 97	'a'
	.db #0x21	; 33
	.db #0x41	; 65	'A'
	.db #0x01	; 1
	.db #0x61	; 97	'a'
	.db #0x41	; 65	'A'
	.db #0x21	; 33
	.db #0x41	; 65	'A'
	.db #0x21	; 33
	.db #0x01	; 1
	.db #0x61	; 97	'a'
	.db #0x01	; 1
	.db #0x61	; 97	'a'
	.db #0x70	; 112	'p'
	.db #0x52	; 82	'R'
	.db #0x70	; 112	'p'
	.db #0x50	; 80	'P'
	.db #0x7f	; 127
	.db #0x5f	; 95
	.db #0x7f	; 127
	.db #0x40	; 64
	.db #0x74	; 116	't'
	.db #0x7d	; 125
	.db #0x54	; 84	'T'
	.db #0x5d	; 93
	.db #0x54	; 84	'T'
	.db #0x5d	; 93
	.db #0x7f	; 127
	.db #0x7f	; 127
	.db #0x00	; 0
	.db #0x40	; 64
	.db #0x00	; 0
	.db #0x00	; 0
	.db #0xff	; 255
	.db #0xff	; 255
	.db #0xff	; 255
	.db #0x00	; 0
	.db #0x92	; 146
	.db #0xb6	; 182
	.db #0x92	; 146
	.db #0xb6	; 182
	.db #0x92	; 146
	.db #0xb6	; 182
	.db #0xff	; 255
	.db #0xff	; 255
	.db #0x01	; 1
	.db #0x81	; 129
	.db #0x02	; 2
	.db #0xc3	; 195
	.db #0xc6	; 198
	.db #0x65	; 101	'e'
	.db #0xbe	; 190
	.db #0x79	; 121	'y'
	.db #0x3e	; 62
	.db #0xf1	; 241
	.db #0x3e	; 62
	.db #0xb1	; 177
	.db #0x7d	; 125
	.db #0xf2	; 242
	.db #0xfb	; 251
	.db #0xf4	; 244
	.db #0x00	; 0
	.db #0x00	; 0
	.db #0x80	; 128
	.db #0x80	; 128
	.db #0x40	; 64
	.db #0xc0	; 192
	.db #0xa0	; 160
	.db #0xe0	; 224
	.db #0xc0	; 192
	.db #0xe0	; 224
	.db #0xe0	; 224
	.db #0xe0	; 224
	.db #0x7e	; 126
	.db #0xfe	; 254
	.db #0xbe	; 190
	.db #0x72	; 114	'r'
	.db #0xd0	; 208
	.db #0xff	; 255
	.db #0x2b	; 43
	.db #0xfc	; 252
	.db #0x64	; 100	'd'
	.db #0xdf	; 223
	.db #0xeb	; 235
	.db #0x9e	; 158
	.db #0xed	; 237
	.db #0x1e	; 30
	.db #0xef	; 239
	.db #0x1f	; 31
	.db #0xd7	; 215
	.db #0x2f	; 47
	.db #0xbb	; 187
	.db #0x57	; 87	'W'
	.db #0x1e	; 30
	.db #0xfa	; 250
	.db #0x9e	; 158
	.db #0x5a	; 90	'Z'
	.db #0x1e	; 30
	.db #0xda	; 218
	.db #0xbe	; 190
	.db #0x5a	; 90	'Z'
	.db #0xfe	; 254
	.db #0x5a	; 90	'Z'
	.db #0xfe	; 254
	.db #0x5a	; 90	'Z'
	.db #0xbe	; 190
	.db #0x5a	; 90	'Z'
	.db #0xfe	; 254
	.db #0xfa	; 250
	.db #0x39	; 57	'9'
	.db #0xc7	; 199
	.db #0x39	; 57	'9'
	.db #0x55	; 85	'U'
	.db #0x01	; 1
	.db #0x7d	; 125
	.db #0xbb	; 187
	.db #0x45	; 69	'E'
	.db #0xbb	; 187
	.db #0x01	; 1
	.db #0xbb	; 187
	.db #0x55	; 85	'U'
	.db #0xbb	; 187
	.db #0x55	; 85	'U'
	.db #0xff	; 255
	.db #0xff	; 255
	.db #0x0e	; 14
	.db #0x0a	; 10
	.db #0x0e	; 14
	.db #0x0a	; 10
	.db #0x0e	; 14
	.db #0x0a	; 10
	.db #0x0e	; 14
	.db #0x0a	; 10
	.db #0x0e	; 14
	.db #0x0a	; 10
	.db #0x0e	; 14
	.db #0x0a	; 10
	.db #0x0e	; 14
	.db #0x0a	; 10
	.db #0x0e	; 14
	.db #0x0a	; 10
	.db #0x00	; 0
	.db #0x00	; 0
	.db #0x00	; 0
	.db #0x00	; 0
	.db #0xe7	; 231
	.db #0xe7	; 231
	.db #0xe7	; 231
	.db #0x00	; 0
	.db #0x62	; 98	'b'
	.db #0xe3	; 227
	.db #0x40	; 64
	.db #0xc1	; 193
	.db #0x40	; 64
	.db #0xc1	; 193
	.db #0xe7	; 231
	.db #0xe7	; 231
	.db #0x0e	; 14
	.db #0x0a	; 10
	.db #0x0e	; 14
	.db #0x0a	; 10
	.db #0xfe	; 254
	.db #0xfa	; 250
	.db #0xfe	; 254
	.db #0x02	; 2
	.db #0xee	; 238
	.db #0xfe	; 254
	.db #0x8a	; 138
	.db #0x9a	; 154
	.db #0x8a	; 138
	.db #0x9a	; 154
	.db #0xfe	; 254
	.db #0xfe	; 254
	.db #0x00	; 0
	.db #0x00	; 0
	.db #0x00	; 0
	.db #0x00	; 0
	.db #0x00	; 0
	.db #0x00	; 0
	.db #0x00	; 0
	.db #0x00	; 0
	.db #0x00	; 0
	.db #0x00	; 0
	.db #0x00	; 0
	.db #0x00	; 0
	.db #0x00	; 0
	.db #0x00	; 0
	.db #0x00	; 0
	.db #0x00	; 0
_Palette_BKG:
	.dw #0x22ed
	.dw #0x2352
	.dw #0x19c4
	.dw #0x14e0
	.dw #0x22ed
	.dw #0x5ef7
	.dw #0x4a52
	.dw #0x3129
	.dw #0x22ed
	.dw #0x3299
	.dw #0x19b4
	.dw #0x00ec
	.dw #0x7bde
	.dw #0x7f7b
	.dw #0x4a52
	.dw #0x2842
	.dw #0x4baa
	.dw #0x4289
	.dw #0x3146
	.dw #0x2842
	.dw #0x7bde
	.dw #0x3299
	.dw #0x19b4
	.dw #0x00ec
_Palette_Sprite_1:
	.dw #0x0000
	.dw #0x7fff
	.dw #0x5294
	.dw #0x0000
	.dw #0x0000
	.dw #0x577f
	.dw #0x052e
	.dw #0x0000
	.dw #0x0000
	.dw #0x237f
	.dw #0x4957
	.dw #0x2842
	.dw #0x0000
	.dw #0x237f
	.dw #0x4957
	.dw #0x2842
;bank3.c:71: void Load_Tileset(UBYTE tileset)
;	---------------------------------
; Function Load_Tileset
; ---------------------------------
_Load_Tileset::
;bank3.c:73: Tileset = tileset;
	ldhl	sp,	#2
	ld	a, (hl)
	ld	(#_Tileset),a
;bank3.c:75: if(tileset == 1)
	cp	a, #0x01
	jr	NZ, 00107$
;bank3.c:77: set_bkg_tileset(0, 196, Tileset_1);
	ld	hl, #_Tileset_1
	push	hl
	ld	a, #0xc4
	push	af
	inc	sp
	xor	a, a
	push	af
	inc	sp
	call	_set_bkg_tileset
	add	sp, #4
	ret
00107$:
;bank3.c:79: else if(tileset == 2)
	cp	a, #0x02
	jr	NZ, 00104$
;bank3.c:81: set_bkg_tileset(0, 144, Tileset_2);
	ld	hl, #_Tileset_2
	push	hl
	ld	a, #0x90
	push	af
	inc	sp
	xor	a, a
	push	af
	inc	sp
	call	_set_bkg_tileset
	add	sp, #4
	ret
00104$:
;bank3.c:83: else if(tileset == 3)
	sub	a, #0x03
	ret	NZ
;bank3.c:85: set_bkg_tileset(0, 78, Tileset_3);
	ld	hl, #_Tileset_3
	push	hl
	ld	a, #0x4e
	push	af
	inc	sp
	xor	a, a
	push	af
	inc	sp
	call	_set_bkg_tileset
	add	sp, #4
;bank3.c:87: }
	ret
;bank3.c:89: void Load_Map(UINT8 map_id) //* Loads map data into "map" based on the ID given.
;	---------------------------------
; Function Load_Map
; ---------------------------------
_Load_Map::
;bank3.c:91: if(map_id == 0) //* Plum Village
	ldhl	sp,	#2
	ld	a, (hl)
	or	a, a
	jr	NZ, 00113$
;bank3.c:93: map_size_x = map_plum_village.size_x;
	ld	a, (#(_map_plum_village + 0x0002) + 0)
	ld	(#_map_size_x),a
;bank3.c:94: map_size_y = map_plum_village.size_y;
	ld	a, (#(_map_plum_village + 0x0003) + 0)
	ld	(#_map_size_y),a
;bank3.c:96: Load_Tileset(1);
	ld	a, #0x01
	push	af
	inc	sp
	call	_Load_Tileset
	inc	sp
;bank3.c:97: set_bkg_palette(0, 4, Palette_BKG);
	ld	hl, #_Palette_BKG
	push	hl
	ld	a, #0x04
	push	af
	inc	sp
	xor	a, a
	push	af
	inc	sp
	call	_set_bkg_palette
	add	sp, #4
;bank3.c:99: Call_Add_NPC(bank3, &char_npc_1, &npc_test_1);
	ld	hl, #_npc_test_1
	push	hl
	ld	hl, #_char_npc_1
	push	hl
	ld	a, #0x03
	push	af
	inc	sp
	call	_Call_Add_NPC
	add	sp, #5
;bank3.c:100: Call_Add_NPC(bank3, &char_npc_2, &npc_test_2);
	ld	hl, #_npc_test_2
	push	hl
	ld	hl, #_char_npc_2
	push	hl
	ld	a, #0x03
	push	af
	inc	sp
	call	_Call_Add_NPC
	add	sp, #5
	ret
00113$:
;bank3.c:102: else if(map_id == 1) //* Hiro's House
	ldhl	sp,	#2
	ld	a, (hl)
	dec	a
	jr	NZ, 00110$
;bank3.c:104: map_size_x = map_hiro_house.size_x;
	ld	a, (#(_map_hiro_house + 0x0002) + 0)
	ld	(#_map_size_x),a
;bank3.c:105: map_size_y = map_hiro_house.size_y;
	ld	a, (#(_map_hiro_house + 0x0003) + 0)
	ld	(#_map_size_y),a
;bank3.c:107: Load_Tileset(2);
	ld	a, #0x02
	push	af
	inc	sp
	call	_Load_Tileset
	inc	sp
;bank3.c:108: set_bkg_palette(0, 4, Palette_BKG);
	ld	hl, #_Palette_BKG
	push	hl
	ld	a, #0x04
	push	af
	inc	sp
	xor	a, a
	push	af
	inc	sp
	call	_set_bkg_palette
	add	sp, #4
	ret
00110$:
;bank3.c:110: else if(map_id == 2) //* Plum Item Shop
	ldhl	sp,	#2
	ld	a, (hl)
	sub	a, #0x02
	jr	NZ, 00107$
;bank3.c:112: map_size_x = map_plum_item_shop.size_x;
	ld	a, (#(_map_plum_item_shop + 0x0002) + 0)
	ld	(#_map_size_x),a
;bank3.c:113: map_size_y = map_plum_item_shop.size_y;
	ld	a, (#(_map_plum_item_shop + 0x0003) + 0)
	ld	(#_map_size_y),a
;bank3.c:115: Load_Tileset(2);
	ld	a, #0x02
	push	af
	inc	sp
	call	_Load_Tileset
	inc	sp
;bank3.c:116: set_bkg_palette(0, 4, Palette_BKG);
	ld	hl, #_Palette_BKG
	push	hl
	ld	a, #0x04
	push	af
	inc	sp
	xor	a, a
	push	af
	inc	sp
	call	_set_bkg_palette
	add	sp, #4
;bank3.c:118: Call_Add_NPC(bank3, &char_npc_1, &npc_plum_shop);
	ld	hl, #_npc_plum_shop
	push	hl
	ld	hl, #_char_npc_1
	push	hl
	ld	a, #0x03
	push	af
	inc	sp
	call	_Call_Add_NPC
	add	sp, #5
	ret
00107$:
;bank3.c:120: else if(map_id == 3) //* Bud's House
	ldhl	sp,	#2
	ld	a, (hl)
	sub	a, #0x03
	jr	NZ, 00104$
;bank3.c:122: map_size_x = map_bud_house.size_x;
	ld	a, (#(_map_bud_house + 0x0002) + 0)
	ld	(#_map_size_x),a
;bank3.c:123: map_size_y = map_bud_house.size_y;
	ld	a, (#(_map_bud_house + 0x0003) + 0)
	ld	(#_map_size_y),a
;bank3.c:125: Load_Tileset(2);
	ld	a, #0x02
	push	af
	inc	sp
	call	_Load_Tileset
	inc	sp
;bank3.c:126: set_bkg_palette(0, 4, Palette_BKG);
	ld	hl, #_Palette_BKG
	push	hl
	ld	a, #0x04
	push	af
	inc	sp
	xor	a, a
	push	af
	inc	sp
	call	_set_bkg_palette
	add	sp, #4
	ret
00104$:
;bank3.c:128: else if(map_id == 4) //* Yggdrid
	ldhl	sp,	#2
	ld	a, (hl)
	sub	a, #0x04
	ret	NZ
;bank3.c:130: map_size_x = map_yggdrid.size_x;
	ld	a, (#(_map_yggdrid + 0x0002) + 0)
	ld	(#_map_size_x),a
;bank3.c:131: map_size_y = map_yggdrid.size_y;
	ld	a, (#(_map_yggdrid + 0x0003) + 0)
	ld	(#_map_size_y),a
;bank3.c:133: Load_Tileset(3);
	ld	a, #0x03
	push	af
	inc	sp
	call	_Load_Tileset
	inc	sp
;bank3.c:134: set_bkg_palette(0, 4, Palette_BKG);
	ld	hl, #_Palette_BKG
	push	hl
	ld	a, #0x04
	push	af
	inc	sp
	xor	a, a
	push	af
	inc	sp
	call	_set_bkg_palette
	add	sp, #4
;bank3.c:136: }
	ret
;bank3.c:138: void Orient_Player() //* Orients player according to map position.
;	---------------------------------
; Function Orient_Player
; ---------------------------------
_Orient_Player::
	add	sp, #-12
;bank3.c:140: i = 0;
	ld	hl, #_i
	ld	(hl), #0x00
;bank3.c:141: j = 0;
	ld	hl, #_j
	ld	(hl), #0x00
;bank3.c:143: if(char_player.pos_x <= 5 && char_player.pos_y <= 5) //* Top Left
	ld	a, (#(_char_player + 0x0006) + 0)
	ldhl	sp,	#0
	ld	(hl), a
	ld	a, #0x05
	ldhl	sp,	#0
	sub	a, (hl)
	ld	a, #0x00
	rla
	inc	hl
;bank3.c:145: Call_Move_Char(bank3, &char_player, char_player.pos_x * 2 + 1, char_player.pos_y * 2 + 1, 0);
	ld	(hl-), a
	ld	a, (hl)
	add	a, a
	inc	a
	inc	hl
	inc	hl
;bank3.c:143: if(char_player.pos_x <= 5 && char_player.pos_y <= 5) //* Top Left
	ld	(hl-), a
	bit	0, (hl)
	jr	NZ, 00134$
	ld	hl, #(_char_player + 0x0007)
	ld	c, (hl)
	ld	a, #0x05
	sub	a, c
	jr	C, 00134$
;bank3.c:145: Call_Move_Char(bank3, &char_player, char_player.pos_x * 2 + 1, char_player.pos_y * 2 + 1, 0);
	ldhl	sp,	#11
	ld	(hl), c
	sla	(hl)
	inc	(hl)
	xor	a, a
	push	af
	inc	sp
	ld	a, (hl)
	push	af
	inc	sp
	ldhl	sp,	#4
	ld	a, (hl)
	push	af
	inc	sp
	ld	hl, #_char_player
	push	hl
	ld	a, #0x03
	push	af
	inc	sp
	call	_Call_Move_Char
	add	sp, #6
	jp	00137$
00134$:
;bank3.c:147: else if(char_player.pos_x > map_size_x - 5 && char_player.pos_y > map_size_y - 5) //* Bottom Right
	ld	hl, #_map_size_x
	ld	c, (hl)
	ld	b, #0x00
	ld	de, #0x0005
	ld	a, c
	sub	a, e
	ld	e, a
	ld	a, b
	sbc	a, d
	ldhl	sp,	#4
	ld	(hl-), a
	ld	(hl), e
	ldhl	sp,	#0
	ld	a, (hl)
	ldhl	sp,	#5
	ld	(hl), a
	xor	a, a
	inc	hl
	ld	(hl), a
	ldhl	sp,	#3
	ld	e, l
	ld	d, h
	ldhl	sp,	#5
	ld	a, (de)
	sub	a, (hl)
	inc	hl
	inc	de
	ld	a, (de)
	sbc	a, (hl)
	ld	a, (de)
	ld	d, a
	bit	7, (hl)
	jr	Z, 00239$
	bit	7, d
	jr	NZ, 00240$
	cp	a, a
	jr	00240$
00239$:
	bit	7, d
	jr	Z, 00240$
	scf
00240$:
	ld	a, #0x00
	rla
	ldhl	sp,	#7
	ld	(hl), a
	ld	hl, #_map_size_y
	ld	c, (hl)
	ld	b, #0x00
;bank3.c:149: i = map_size_x - char_player.pos_x;
	ld	a, (#_map_size_x)
	ldhl	sp,	#0
	sub	a, (hl)
	ldhl	sp,	#8
	ld	(hl), a
;bank3.c:147: else if(char_player.pos_x > map_size_x - 5 && char_player.pos_y > map_size_y - 5) //* Bottom Right
	ld	de, #0x0005
	ld	a, c
	sub	a, e
	ld	e, a
	ld	a, b
	sbc	a, d
	inc	hl
	inc	hl
	ld	(hl-), a
	ld	a, e
	ld	(hl-), a
	dec	hl
	ld	a, (hl)
	or	a, a
	jr	Z, 00130$
	ld	a, (#(_char_player + 0x0007) + 0)
	ld	c, a
	ld	b, #0x00
	inc	hl
	inc	hl
	ld	a, (hl)
	sub	a, c
	inc	hl
	ld	a, (hl)
	sbc	a, b
	ld	d, (hl)
	ld	a, b
	bit	7,a
	jr	Z, 00241$
	bit	7, d
	jr	NZ, 00242$
	cp	a, a
	jr	00242$
00241$:
	bit	7, d
	jr	Z, 00242$
	scf
00242$:
	jr	NC, 00130$
;bank3.c:149: i = map_size_x - char_player.pos_x;
	ldhl	sp,	#8
	ld	a, (hl)
	ld	hl, #_i
;bank3.c:150: i = i * 2;
	ld	(hl), a
	add	a, a
	ld	(hl), a
;bank3.c:151: j = map_size_y - char_player.pos_y;
	ld	hl, #(_char_player + 0x0007)
	ld	c, (hl)
	ld	a, (#_map_size_y)
	sub	a, c
	ld	hl, #_j
;bank3.c:152: j = j * 2;
	ld	(hl), a
	add	a, a
	ld	(hl), a
;bank3.c:154: Call_Move_Char(bank3, &char_player, 20 - i, 19 - j, 0);
	ld	a, #0x13
	sub	a, (hl)
	ld	b, a
	ld	a, #0x14
	ld	hl, #_i
	sub	a, (hl)
	ld	c, a
	xor	a, a
	push	af
	inc	sp
	push	bc
	ld	hl, #_char_player
	push	hl
	ld	a, #0x03
	push	af
	inc	sp
	call	_Call_Move_Char
	add	sp, #6
	jp	00137$
00130$:
;bank3.c:156: else if(char_player.pos_x >= map_size_x - 5 && char_player.pos_y <= 5)  //* Top Right
	ldhl	sp,	#5
	ld	e, l
	ld	d, h
	ldhl	sp,	#3
	ld	a, (de)
	sub	a, (hl)
	inc	hl
	inc	de
	ld	a, (de)
	sbc	a, (hl)
	ld	a, (de)
	ld	d, a
	bit	7, (hl)
	jr	Z, 00243$
	bit	7, d
	jr	NZ, 00244$
	cp	a, a
	jr	00244$
00243$:
	bit	7, d
	jr	Z, 00244$
	scf
00244$:
	ld	a, #0x00
	rla
	ldhl	sp,	#11
	ld	(hl), a
	bit	0, (hl)
	jr	NZ, 00126$
	ld	hl, #(_char_player + 0x0007)
	ld	c, (hl)
	ld	a, #0x05
	sub	a, c
	jr	C, 00126$
;bank3.c:158: j = map_size_x - char_player.pos_x;
	ldhl	sp,	#8
	ld	a, (hl)
	ld	hl, #_j
;bank3.c:159: j = j * 2;
	ld	(hl), a
	add	a, a
	ld	(hl), a
;bank3.c:160: i = char_player.pos_y;
	ld	a, (#(_char_player + 0x0007) + 0)
	ld	(#_i),a
;bank3.c:161: i = i * 2;
	ld	hl, #_i
	ld	a, (hl)
	add	a, a
	ld	(hl), a
;bank3.c:163: Call_Move_Char(bank3, &char_player, 21 - j, i + 1, 0);
	ld	e, (hl)
	inc	e
	ld	a, #0x15
	ld	hl, #_j
	sub	a, (hl)
	ld	c, a
	xor	a, a
	ld	d,a
	push	de
	ld	a, c
	push	af
	inc	sp
	ld	hl, #_char_player
	push	hl
	ld	a, #0x03
	push	af
	inc	sp
	call	_Call_Move_Char
	add	sp, #6
	jp	00137$
00126$:
;bank3.c:165: else if(char_player.pos_x <= 5 && char_player.pos_y >= map_size_y - 5) //* Bottom Left
	ldhl	sp,	#1
	bit	0, (hl)
	jr	NZ, 00122$
	ld	a, (#(_char_player + 0x0007) + 0)
	ldhl	sp,	#6
	ld	(hl), a
	ldhl	sp,	#6
	ld	c, (hl)
	ld	b, #0x00
	ldhl	sp,	#9
	ld	a, c
	sub	a, (hl)
	inc	hl
	ld	a, b
	sbc	a, (hl)
	ld	a, b
	ld	d, a
	bit	7, (hl)
	jr	Z, 00245$
	bit	7, d
	jr	NZ, 00246$
	cp	a, a
	jr	00246$
00245$:
	bit	7, d
	jr	Z, 00246$
	scf
00246$:
	jr	C, 00122$
;bank3.c:167: j = map_size_y - char_player.pos_y;
	ld	a, (#_map_size_y)
	ldhl	sp,	#6
	sub	a, (hl)
	ld	hl, #_j
;bank3.c:168: j = j * 2;
	ld	(hl), a
	add	a, a
	ld	(hl), a
;bank3.c:170: Call_Move_Char(bank3, &char_player, char_player.pos_x * 2 + 1, 19 - j, 0);
	ld	a, #0x13
	sub	a, (hl)
	ld	c, a
	ld	a, (#(_char_player + 0x0006) + 0)
	add	a, a
	ld	e, a
	inc	e
	xor	a, a
	push	af
	inc	sp
	ld	d, c
	push	de
	ld	hl, #_char_player
	push	hl
	ld	a, #0x03
	push	af
	inc	sp
	call	_Call_Move_Char
	add	sp, #6
	jp	00137$
00122$:
;bank3.c:172: else if(char_player.pos_x < 5 && char_player.pos_y > 5 && char_player.pos_y < map_size_y - 5) //* Middle Left
	ldhl	sp,	#0
	ld	a, (hl)
	sub	a, #0x05
	jr	NC, 00117$
	ld	hl, #(_char_player + 0x0007)
	ld	c, (hl)
	ld	a, #0x05
	sub	a, c
	jr	NC, 00117$
	ld	b, #0x00
	ldhl	sp,	#9
	ld	a, c
	sub	a, (hl)
	inc	hl
	ld	a, b
	sbc	a, (hl)
	ld	a, b
	ld	d, a
	bit	7, (hl)
	jr	Z, 00247$
	bit	7, d
	jr	NZ, 00248$
	cp	a, a
	jr	00248$
00247$:
	bit	7, d
	jr	Z, 00248$
	scf
00248$:
	jr	NC, 00117$
;bank3.c:174: Call_Move_Char(bank3, &char_player, char_player.pos_x * 2 + 1, 11, 0);
	xor	a, a
	ld	d,a
	ld	e,#0x0b
	push	de
	ldhl	sp,	#4
	ld	a, (hl)
	push	af
	inc	sp
	ld	hl, #_char_player
	push	hl
	ld	a, #0x03
	push	af
	inc	sp
	call	_Call_Move_Char
	add	sp, #6
	jp	00137$
00117$:
;bank3.c:176: else if(char_player.pos_x > 5 && char_player.pos_x < map_size_x - 5 && char_player.pos_y <= 5) //* Middle Top
	ldhl	sp,	#1
	ld	a, (hl)
	ldhl	sp,	#6
	ld	(hl), a
	or	a, a
	jr	Z, 00112$
	ldhl	sp,	#11
	ld	a, (hl)
	or	a, a
	jr	Z, 00112$
	ld	hl, #(_char_player + 0x0007)
	ld	c, (hl)
	ld	a, #0x05
	sub	a, c
	jr	C, 00112$
;bank3.c:178: j = char_player.pos_y;
	ld	hl, #_j
	ld	(hl), c
;bank3.c:179: j = j * 2;
	ld	a, (hl)
	add	a, a
	ld	(hl), a
;bank3.c:181: Call_Move_Char(bank3, &char_player, 11, j + 1, 0);
	ld	b, (hl)
	inc	b
	xor	a, a
	push	af
	inc	sp
	ld	c, #0x0b
	push	bc
	ld	hl, #_char_player
	push	hl
	ld	a, #0x03
	push	af
	inc	sp
	call	_Call_Move_Char
	add	sp, #6
	jp	00137$
00112$:
;bank3.c:183: else if(char_player.pos_x > map_size_x - 5 && char_player.pos_y > 5 && char_player.pos_y < map_size_y - 5) //* Middle Right
	ldhl	sp,	#7
	ld	a, (hl)
	or	a, a
	jr	Z, 00107$
	ld	hl, #(_char_player + 0x0007)
	ld	c, (hl)
	ld	a, #0x05
	sub	a, c
	jr	NC, 00107$
	ld	b, #0x00
	ldhl	sp,	#9
	ld	a, c
	sub	a, (hl)
	inc	hl
	ld	a, b
	sbc	a, (hl)
	ld	a, b
	ld	d, a
	bit	7, (hl)
	jr	Z, 00249$
	bit	7, d
	jr	NZ, 00250$
	cp	a, a
	jr	00250$
00249$:
	bit	7, d
	jr	Z, 00250$
	scf
00250$:
	jr	NC, 00107$
;bank3.c:185: j = map_size_x - char_player.pos_x;
	ldhl	sp,	#8
	ld	a, (hl)
	ld	hl, #_j
;bank3.c:186: j = j * 2;
	ld	(hl), a
	add	a, a
	ld	(hl), a
;bank3.c:188: Call_Move_Char(bank3, &char_player, 21 - j, 10 + 1, 0);
	ld	a, #0x15
	sub	a, (hl)
	ld	b, a
	xor	a, a
	ld	d,a
	ld	e,#0x0b
	push	de
	push	bc
	inc	sp
	ld	hl, #_char_player
	push	hl
	ld	a, #0x03
	push	af
	inc	sp
	call	_Call_Move_Char
	add	sp, #6
	jr	00137$
00107$:
;bank3.c:190: else if(char_player.pos_x > 5 && char_player.pos_x < map_size_x - 5 && char_player.pos_y > map_size_y - 5) //* Middle Bottom
	ldhl	sp,	#6
	ld	a, (hl)
	or	a, a
	jr	Z, 00102$
	ldhl	sp,	#11
	ld	a, (hl)
	or	a, a
	jr	Z, 00102$
	ld	a, (#(_char_player + 0x0007) + 0)
	ldhl	sp,	#11
	ld	(hl), a
	ldhl	sp,	#11
	ld	c, (hl)
	ld	b, #0x00
	dec	hl
	dec	hl
	ld	a, (hl)
	sub	a, c
	inc	hl
	ld	a, (hl)
	sbc	a, b
	ld	d, (hl)
	ld	a, b
	bit	7,a
	jr	Z, 00251$
	bit	7, d
	jr	NZ, 00252$
	cp	a, a
	jr	00252$
00251$:
	bit	7, d
	jr	Z, 00252$
	scf
00252$:
	jr	NC, 00102$
;bank3.c:192: j = map_size_y - char_player.pos_y;
	ld	a, (#_map_size_y)
	ldhl	sp,	#11
	sub	a, (hl)
	ld	hl, #_j
;bank3.c:193: j = j * 2;
	ld	(hl), a
	add	a, a
	ld	(hl), a
;bank3.c:195: Call_Move_Char(bank3, &char_player, 11, 19 - j, 0);
	ld	a, #0x13
	sub	a, (hl)
	ld	b, a
	xor	a, a
	push	af
	inc	sp
	ld	c, #0x0b
	push	bc
	ld	hl, #_char_player
	push	hl
	ld	a, #0x03
	push	af
	inc	sp
	call	_Call_Move_Char
	add	sp, #6
	jr	00137$
00102$:
;bank3.c:199: Call_Move_Char(bank3, &char_player, 11, 11, 0);
	xor	a, a
	ld	d,a
	ld	e,#0x0b
	push	de
	ld	a, #0x0b
	push	af
	inc	sp
	ld	hl, #_char_player
	push	hl
	ld	a, #0x03
	push	af
	inc	sp
	call	_Call_Move_Char
	add	sp, #6
00137$:
;bank3.c:201: }
	add	sp, #12
	ret
;bank3.c:203: void Orient_Char(GameCharacter* character)
;	---------------------------------
; Function Orient_Char
; ---------------------------------
_Orient_Char::
	add	sp, #-3
;bank3.c:205: if(char_player.pos_x <= 5)
	ld	a, (#(_char_player + 0x0006) + 0)
	ldhl	sp,	#0
	ld	(hl), a
	ld	a, #0x05
	ldhl	sp,	#0
	sub	a, (hl)
	jr	C, 00105$
;bank3.c:207: offset_pos_x = 0;
	ld	hl, #_offset_pos_x
	ld	(hl), #0x00
	jr	00106$
00105$:
;bank3.c:209: else if(char_player.pos_x >= map_size_x - 5)
	ld	hl, #_map_size_x
	ld	c, (hl)
	ld	b, #0x00
	ld	a, c
	add	a, #0xfb
	ld	c, a
	ld	a, b
	adc	a, #0xff
	ld	b, a
	ldhl	sp,	#0
	ld	a, (hl+)
	ld	(hl), a
	xor	a, a
	inc	hl
	ld	(hl-), a
	ld	a, (hl)
	sub	a, c
	inc	hl
	ld	a, (hl)
	sbc	a, b
	ld	d, (hl)
	ld	a, b
	bit	7,a
	jr	Z, 00135$
	bit	7, d
	jr	NZ, 00136$
	cp	a, a
	jr	00136$
00135$:
	bit	7, d
	jr	Z, 00136$
	scf
00136$:
	jr	C, 00102$
;bank3.c:211: offset_pos_x = map_size_x - 5;
	ld	a, (#_map_size_x)
	add	a, #0xfb
	ld	(#_offset_pos_x),a
	jr	00106$
00102$:
;bank3.c:215: offset_pos_x = char_player.pos_x - 5;
	ldhl	sp,	#0
	ld	a, (hl)
	add	a, #0xfb
	ld	(#_offset_pos_x),a
00106$:
;bank3.c:218: if(char_player.pos_y <= 5)
	ld	a, (#(_char_player + 0x0007) + 0)
	ldhl	sp,	#0
	ld	(hl), a
	ld	a, #0x05
	ldhl	sp,	#0
	sub	a, (hl)
	jr	C, 00111$
;bank3.c:220: offset_pos_y = 0;
	ld	hl, #_offset_pos_y
	ld	(hl), #0x00
	jr	00112$
00111$:
;bank3.c:222: else if(char_player.pos_y > map_size_y - 5)
	ld	hl, #_map_size_y
	ld	c, (hl)
	ld	b, #0x00
	ld	a, c
	add	a, #0xfb
	ld	c, a
	ld	a, b
	adc	a, #0xff
	ld	b, a
	ldhl	sp,	#0
	ld	a, (hl+)
	ld	(hl), a
	xor	a, a
	inc	hl
	ld	(hl-), a
	ld	a, c
	sub	a, (hl)
	inc	hl
	ld	a, b
	sbc	a, (hl)
	ld	a, b
	ld	d, a
	bit	7, (hl)
	jr	Z, 00137$
	bit	7, d
	jr	NZ, 00138$
	cp	a, a
	jr	00138$
00137$:
	bit	7, d
	jr	Z, 00138$
	scf
00138$:
	jr	NC, 00108$
;bank3.c:224: offset_pos_y = map_size_y - 5;
	ld	a, (#_map_size_y)
	add	a, #0xfb
	ld	(#_offset_pos_y),a
	jr	00112$
00108$:
;bank3.c:228: offset_pos_y = char_player.pos_y - 5;
	ldhl	sp,	#0
	ld	a, (hl)
	add	a, #0xfb
	ld	(#_offset_pos_y),a
00112$:
;bank3.c:231: j = character->pos_x * 2;
	ldhl	sp,#5
	ld	a, (hl+)
	ld	e, a
	ld	d, (hl)
	ld	hl, #0x0006
	add	hl, de
	ld	a, (hl)
	add	a, a
	ld	(#_j),a
;bank3.c:232: k = character->pos_y * 2;
	ld	hl, #0x0007
	add	hl, de
	ld	a, (hl)
	add	a, a
	ld	(#_k),a
;bank3.c:234: j += 1;
	ld	hl, #_j
	inc	(hl)
;bank3.c:235: k += 1;
	ld	hl, #_k
	inc	(hl)
;bank3.c:237: offset_pos_x = offset_pos_x * 2;
	ld	hl, #_offset_pos_x
	ld	a, (hl)
	add	a, a
	ld	(hl), a
;bank3.c:238: offset_pos_y = offset_pos_y * 2;
	ld	hl, #_offset_pos_y
	ld	a, (hl)
	add	a, a
	ld	(hl), a
;bank3.c:240: Call_Move_Char(bank3, character, j - offset_pos_x, k - offset_pos_y, 0);
	ld	c, (hl)
	ld	a, (#_k)
	sub	a, c
	ld	b, a
	ld	hl, #_offset_pos_x
	ld	c, (hl)
	ld	a, (#_j)
	sub	a, c
	ld	h, #0x00
	ld	l, b
	push	hl
	push	af
	inc	sp
	push	de
	ld	a, #0x03
	push	af
	inc	sp
	call	_Call_Move_Char
	add	sp, #6
;bank3.c:241: }
	add	sp, #3
	ret
;bank3.c:243: void Draw_Map(GameMap* map) //* Sets player position relative to the screen, draws first background map.
;	---------------------------------
; Function Draw_Map
; ---------------------------------
_Draw_Map::
;bank3.c:245: Clear_Map();
	call	_Clear_Map
;bank3.c:247: map_x = 0;
	ld	hl, #_map_x
	ld	a, #0x00
	ld	(hl+), a
	ld	(hl), #0x00
;bank3.c:248: map_y = 0;
	ld	hl, #_map_y
	ld	a, #0x00
	ld	(hl+), a
	ld	(hl), #0x00
;bank3.c:249: load_pos_x = 0;
	ld	hl, #_load_pos_x
	ld	a, #0x00
	ld	(hl+), a
	ld	(hl), #0x00
;bank3.c:250: load_pos_y = 0;
	ld	hl, #_load_pos_y
	ld	a, #0x00
	ld	(hl+), a
	ld	(hl), #0x00
;bank3.c:252: CurrentMap = map->map_id;
	pop	bc
	pop	de
	push	de
	push	bc
	ld	a, (de)
	ld	(#_CurrentMap),a
;bank3.c:253: CurrentMapBank = map->map_bank;
	ld	c, e
	ld	b, d
	inc	bc
	ld	a, (bc)
	ld	(#_CurrentMapBank),a
;bank3.c:255: Call_Reset_NPC(bank3);
	push	de
	ld	a, #0x03
	push	af
	inc	sp
	call	_Call_Reset_NPC
	inc	sp
	pop	de
;bank3.c:256: Load_Map(map->map_id);
	ld	a, (de)
	push	de
	push	af
	inc	sp
	call	_Load_Map
	inc	sp
	ld	a, #0x03
	push	af
	inc	sp
	call	_Call_Draw_Map_Load
	add	sp, #3
;bank3.c:260: Orient_Char(&char_npc_1);
	ld	hl, #_char_npc_1
	push	hl
	call	_Orient_Char
	add	sp, #2
;bank3.c:261: Orient_Char(&char_npc_2);
	ld	hl, #_char_npc_2
	push	hl
	call	_Orient_Char
	add	sp, #2
;bank3.c:263: Call_Hide_Char(bank3, &char_npc_1);
	ld	hl, #_char_npc_1
	push	hl
	ld	a, #0x03
	push	af
	inc	sp
	call	_Call_Hide_Char
	add	sp, #3
;bank3.c:264: Call_Hide_Char(bank3, &char_npc_2);
	ld	hl, #_char_npc_2
	push	hl
	ld	a, #0x03
	push	af
	inc	sp
	call	_Call_Hide_Char
	add	sp, #3
;bank3.c:266: Orient_Player();
;bank3.c:267: }
	jp  _Orient_Player
;bank3.c:269: void Reload_Map() //* Reloads map based on "CurrentMap".
;	---------------------------------
; Function Reload_Map
; ---------------------------------
_Reload_Map::
;c:/gbdk/include/gb/gb.h:756: SCX_REG=x, SCY_REG=y;
	ld	a, #0x00
	ldh	(_SCX_REG+0),a
	ld	a, #0x00
	ldh	(_SCY_REG+0),a
;bank3.c:273: camera_x = 0;
	ld	hl, #_camera_x
	ld	(hl), #0x00
;bank3.c:274: camera_y = 0;
	ld	hl, #_camera_y
	ld	(hl), #0x00
;bank3.c:276: map_x = 0;
	ld	hl, #_map_x
	ld	a, #0x00
	ld	(hl+), a
	ld	(hl), #0x00
;bank3.c:277: map_y = 0;
	ld	hl, #_map_y
	ld	a, #0x00
	ld	(hl+), a
	ld	(hl), #0x00
;bank3.c:278: load_pos_x = 0;
	ld	hl, #_load_pos_x
	ld	a, #0x00
	ld	(hl+), a
	ld	(hl), #0x00
;bank3.c:279: load_pos_y = 0;
	ld	hl, #_load_pos_y
	ld	a, #0x00
	ld	(hl+), a
	ld	(hl), #0x00
;bank3.c:281: Call_Draw_Map_Load(bank3, Get_Map(CurrentMap));
	ld	a, (#_CurrentMap)
	push	af
	inc	sp
	call	_Get_Map
	inc	sp
	push	de
	ld	a, #0x03
	push	af
	inc	sp
	call	_Call_Draw_Map_Load
	add	sp, #3
;bank3.c:283: Orient_Char(&char_npc_1);
	ld	hl, #_char_npc_1
	push	hl
	call	_Orient_Char
	add	sp, #2
;bank3.c:284: Orient_Char(&char_npc_2);
	ld	hl, #_char_npc_2
	push	hl
	call	_Orient_Char
	add	sp, #2
;bank3.c:286: Orient_Player();
;bank3.c:287: }
	jp  _Orient_Player
;bank3.c:289: void Draw_Titlescreen(void)
;	---------------------------------
; Function Draw_Titlescreen
; ---------------------------------
_Draw_Titlescreen::
;bank3.c:291: wait_vbl_done();
	call	_wait_vbl_done
;bank3.c:292: DISPLAY_OFF;
	call	_display_off
;bank3.c:294: Load_Tileset(1);
	ld	a, #0x01
	push	af
	inc	sp
	call	_Load_Tileset
	inc	sp
;bank3.c:296: SHOW_SPRITES;
	ldh	a, (_LCDC_REG+0)
	or	a, #0x02
	ldh	(_LCDC_REG+0),a
;bank3.c:298: Call_Draw_Map(bank3, &map_plum_village);
	ld	hl, #_map_plum_village
	push	hl
	ld	a, #0x03
	push	af
	inc	sp
	call	_Call_Draw_Map
	add	sp, #3
;bank3.c:300: SHOW_BKG;
	ldh	a, (_LCDC_REG+0)
	or	a, #0x01
	ldh	(_LCDC_REG+0),a
;bank3.c:301: HIDE_WIN;
	ldh	a, (_LCDC_REG+0)
	and	a, #0xdf
	ldh	(_LCDC_REG+0),a
;bank3.c:303: wait_vbl_done();
	call	_wait_vbl_done
;bank3.c:304: DISPLAY_ON;
	ldh	a, (_LCDC_REG+0)
	or	a, #0x80
	ldh	(_LCDC_REG+0),a
;bank3.c:305: }
	ret
;bank3.c:307: void Load_Hiro_Tiles(void)
;	---------------------------------
; Function Load_Hiro_Tiles
; ---------------------------------
_Load_Hiro_Tiles::
;bank3.c:309: set_sprite_palette(0, 2, Palette_Sprite_1);
	ld	hl, #_Palette_Sprite_1
	push	hl
	ld	a, #0x02
	push	af
	inc	sp
	xor	a, a
	push	af
	inc	sp
	call	_set_sprite_palette
	add	sp, #4
;bank3.c:310: }
	ret
	.area _CODE_3
	.area _CABS (ABS)
